   1              		.syntax unified
   2              		.cpu cortex-m3
   3              		.fpu softvfp
   4              		.eabi_attribute 20, 1
   5              		.eabi_attribute 21, 1
   6              		.eabi_attribute 23, 3
   7              		.eabi_attribute 24, 1
   8              		.eabi_attribute 25, 1
   9              		.eabi_attribute 26, 1
  10              		.eabi_attribute 30, 4
  11              		.eabi_attribute 34, 1
  12              		.eabi_attribute 18, 4
  13              		.thumb
  14              		.file	"stm32f10x_wwdg.c"
  15              		.text
  16              		.align	1
  17              		.global	WWDG_DeInit
  18              		.thumb
  19              		.thumb_func
  21              	WWDG_DeInit:
  22              		@ args = 0, pretend = 0, frame = 0
  23              		@ frame_needed = 0, uses_anonymous_args = 0
  24 0000 08B5     		push	{r3, lr}
  25 0002 4FF40060 		mov	r0, #2048
  26 0006 0121     		movs	r1, #1
  27 0008 FFF7FEFF 		bl	RCC_APB1PeriphResetCmd
  28 000c 4FF40060 		mov	r0, #2048
  29 0010 0021     		movs	r1, #0
  30 0012 BDE80840 		pop	{r3, lr}
  31 0016 FFF7FEBF 		b	RCC_APB1PeriphResetCmd
  33              		.align	1
  34              		.global	WWDG_SetPrescaler
  35              		.thumb
  36              		.thumb_func
  38              	WWDG_SetPrescaler:
  39              		@ args = 0, pretend = 0, frame = 0
  40              		@ frame_needed = 0, uses_anonymous_args = 0
  41              		@ link register save eliminated.
  42 001a 034B     		ldr	r3, .L3
  43 001c 5A68     		ldr	r2, [r3, #4]
  44 001e 22F4C072 		bic	r2, r2, #384
  45 0022 1043     		orrs	r0, r0, r2
  46 0024 5860     		str	r0, [r3, #4]
  47 0026 7047     		bx	lr
  48              	.L4:
  49              		.align	2
  50              	.L3:
  51 0028 002C0040 		.word	1073753088
  53              		.align	1
  54              		.global	WWDG_SetWindowValue
  55              		.thumb
  56              		.thumb_func
  58              	WWDG_SetWindowValue:
  59              		@ args = 0, pretend = 0, frame = 8
  60              		@ frame_needed = 0, uses_anonymous_args = 0
  61              		@ link register save eliminated.
  62 002c 82B0     		sub	sp, sp, #8
  63 002e 0023     		movs	r3, #0
  64 0030 0193     		str	r3, [sp, #4]
  65 0032 074B     		ldr	r3, .L6
  66 0034 00F07F00 		and	r0, r0, #127
  67 0038 5A68     		ldr	r2, [r3, #4]
  68 003a 22F07F02 		bic	r2, r2, #127
  69 003e 0192     		str	r2, [sp, #4]
  70 0040 019A     		ldr	r2, [sp, #4]
  71 0042 0243     		orrs	r2, r2, r0
  72 0044 0192     		str	r2, [sp, #4]
  73 0046 019A     		ldr	r2, [sp, #4]
  74 0048 5A60     		str	r2, [r3, #4]
  75 004a 02B0     		add	sp, sp, #8
  76 004c 7047     		bx	lr
  77              	.L7:
  78 004e 00BF     		.align	2
  79              	.L6:
  80 0050 002C0040 		.word	1073753088
  82              		.align	1
  83              		.global	WWDG_EnableIT
  84              		.thumb
  85              		.thumb_func
  87              	WWDG_EnableIT:
  88              		@ args = 0, pretend = 0, frame = 0
  89              		@ frame_needed = 0, uses_anonymous_args = 0
  90              		@ link register save eliminated.
  91 0054 014B     		ldr	r3, .L9
  92 0056 0122     		movs	r2, #1
  93 0058 1A60     		str	r2, [r3, #0]
  94 005a 7047     		bx	lr
  95              	.L10:
  96              		.align	2
  97              	.L9:
  98 005c A4800542 		.word	1107656868
 100              		.align	1
 101              		.global	WWDG_SetCounter
 102              		.thumb
 103              		.thumb_func
 105              	WWDG_SetCounter:
 106              		@ args = 0, pretend = 0, frame = 0
 107              		@ frame_needed = 0, uses_anonymous_args = 0
 108              		@ link register save eliminated.
 109 0060 024B     		ldr	r3, .L12
 110 0062 00F07F00 		and	r0, r0, #127
 111 0066 1860     		str	r0, [r3, #0]
 112 0068 7047     		bx	lr
 113              	.L13:
 114 006a 00BF     		.align	2
 115              	.L12:
 116 006c 002C0040 		.word	1073753088
 118              		.align	1
 119              		.global	WWDG_Enable
 120              		.thumb
 121              		.thumb_func
 123              	WWDG_Enable:
 124              		@ args = 0, pretend = 0, frame = 0
 125              		@ frame_needed = 0, uses_anonymous_args = 0
 126              		@ link register save eliminated.
 127 0070 024B     		ldr	r3, .L15
 128 0072 40F08000 		orr	r0, r0, #128
 129 0076 1860     		str	r0, [r3, #0]
 130 0078 7047     		bx	lr
 131              	.L16:
 132 007a 00BF     		.align	2
 133              	.L15:
 134 007c 002C0040 		.word	1073753088
 136              		.align	1
 137              		.global	WWDG_GetFlagStatus
 138              		.thumb
 139              		.thumb_func
 141              	WWDG_GetFlagStatus:
 142              		@ args = 0, pretend = 0, frame = 0
 143              		@ frame_needed = 0, uses_anonymous_args = 0
 144              		@ link register save eliminated.
 145 0080 014B     		ldr	r3, .L18
 146 0082 9868     		ldr	r0, [r3, #8]
 147 0084 C0B2     		uxtb	r0, r0
 148 0086 7047     		bx	lr
 149              	.L19:
 150              		.align	2
 151              	.L18:
 152 0088 002C0040 		.word	1073753088
 154              		.align	1
 155              		.global	WWDG_ClearFlag
 156              		.thumb
 157              		.thumb_func
 159              	WWDG_ClearFlag:
 160              		@ args = 0, pretend = 0, frame = 0
 161              		@ frame_needed = 0, uses_anonymous_args = 0
 162              		@ link register save eliminated.
 163 008c 014B     		ldr	r3, .L21
 164 008e 0022     		movs	r2, #0
 165 0090 9A60     		str	r2, [r3, #8]
 166 0092 7047     		bx	lr
 167              	.L22:
 168              		.align	2
 169              	.L21:
 170 0094 002C0040 		.word	1073753088
 172              		.ident	"GCC: (Linaro GCC 4.7-2013.01) 4.7.3 20130102 (prerelease)"