   1              		.syntax unified
   2              		.cpu cortex-m3
   3              		.fpu softvfp
   4              		.eabi_attribute 20, 1
   5              		.eabi_attribute 21, 1
   6              		.eabi_attribute 23, 3
   7              		.eabi_attribute 24, 1
   8              		.eabi_attribute 25, 1
   9              		.eabi_attribute 26, 1
  10              		.eabi_attribute 30, 4
  11              		.eabi_attribute 34, 1
  12              		.eabi_attribute 18, 4
  13              		.thumb
  14              		.file	"stm32f10x_exti.c"
  15              		.text
  16              		.align	1
  17              		.global	EXTI_DeInit
  18              		.thumb
  19              		.thumb_func
  21              	EXTI_DeInit:
  22              		@ args = 0, pretend = 0, frame = 0
  23              		@ frame_needed = 0, uses_anonymous_args = 0
  24              		@ link register save eliminated.
  25 0000 044B     		ldr	r3, .L2
  26 0002 0022     		movs	r2, #0
  27 0004 1A60     		str	r2, [r3, #0]
  28 0006 5A60     		str	r2, [r3, #4]
  29 0008 9A60     		str	r2, [r3, #8]
  30 000a DA60     		str	r2, [r3, #12]
  31 000c 024A     		ldr	r2, .L2+4
  32 000e 5A61     		str	r2, [r3, #20]
  33 0010 7047     		bx	lr
  34              	.L3:
  35 0012 00BF     		.align	2
  36              	.L2:
  37 0014 00040140 		.word	1073808384
  38 0018 FFFF0F00 		.word	1048575
  40              		.align	1
  41              		.global	EXTI_Init
  42              		.thumb
  43              		.thumb_func
  45              	EXTI_Init:
  46              		@ args = 0, pretend = 0, frame = 0
  47              		@ frame_needed = 0, uses_anonymous_args = 0
  48 001c 8379     		ldrb	r3, [r0, #6]	@ zero_extendqisi2
  49 001e 10B5     		push	{r4, lr}
  50 0020 002B     		cmp	r3, #0
  51 0022 29D0     		beq	.L5
  52 0024 1A4B     		ldr	r3, .L9
  53 0026 0168     		ldr	r1, [r0, #0]
  54 0028 1C68     		ldr	r4, [r3, #0]
  55 002a CA43     		mvns	r2, r1
  56 002c 1440     		ands	r4, r4, r2
  57 002e 1C60     		str	r4, [r3, #0]
  58 0030 5C68     		ldr	r4, [r3, #4]
  59 0032 2240     		ands	r2, r2, r4
  60 0034 5A60     		str	r2, [r3, #4]
  61 0036 0279     		ldrb	r2, [r0, #4]	@ zero_extendqisi2
  62 0038 02F18042 		add	r2, r2, #1073741824
  63 003c 02F58232 		add	r2, r2, #66560
  64 0040 1468     		ldr	r4, [r2, #0]
  65 0042 2143     		orrs	r1, r1, r4
  66 0044 1160     		str	r1, [r2, #0]
  67 0046 0268     		ldr	r2, [r0, #0]
  68 0048 9C68     		ldr	r4, [r3, #8]
  69 004a D143     		mvns	r1, r2
  70 004c 0C40     		ands	r4, r4, r1
  71 004e 9C60     		str	r4, [r3, #8]
  72 0050 DC68     		ldr	r4, [r3, #12]
  73 0052 2140     		ands	r1, r1, r4
  74 0054 D960     		str	r1, [r3, #12]
  75 0056 4179     		ldrb	r1, [r0, #5]	@ zero_extendqisi2
  76 0058 1029     		cmp	r1, #16
  77 005a 06D1     		bne	.L6
  78 005c 9968     		ldr	r1, [r3, #8]
  79 005e 1143     		orrs	r1, r1, r2
  80 0060 9960     		str	r1, [r3, #8]
  81 0062 D968     		ldr	r1, [r3, #12]
  82 0064 0A43     		orrs	r2, r2, r1
  83 0066 DA60     		str	r2, [r3, #12]
  84 0068 10BD     		pop	{r4, pc}
  85              	.L6:
  86 006a 01F18043 		add	r3, r1, #1073741824
  87 006e 03F58233 		add	r3, r3, #66560
  88 0072 1968     		ldr	r1, [r3, #0]
  89 0074 0A43     		orrs	r2, r2, r1
  90 0076 08E0     		b	.L8
  91              	.L5:
  92 0078 0379     		ldrb	r3, [r0, #4]	@ zero_extendqisi2
  93 007a 0168     		ldr	r1, [r0, #0]
  94 007c 03F18043 		add	r3, r3, #1073741824
  95 0080 03F58233 		add	r3, r3, #66560
  96 0084 1A68     		ldr	r2, [r3, #0]
  97 0086 22EA0102 		bic	r2, r2, r1
  98              	.L8:
  99 008a 1A60     		str	r2, [r3, #0]
 100 008c 10BD     		pop	{r4, pc}
 101              	.L10:
 102 008e 00BF     		.align	2
 103              	.L9:
 104 0090 00040140 		.word	1073808384
 106              		.align	1
 107              		.global	EXTI_StructInit
 108              		.thumb
 109              		.thumb_func
 111              	EXTI_StructInit:
 112              		@ args = 0, pretend = 0, frame = 0
 113              		@ frame_needed = 0, uses_anonymous_args = 0
 114              		@ link register save eliminated.
 115 0094 0023     		movs	r3, #0
 116 0096 0C22     		movs	r2, #12
 117 0098 0360     		str	r3, [r0, #0]
 118 009a 0371     		strb	r3, [r0, #4]
 119 009c 4271     		strb	r2, [r0, #5]
 120 009e 8371     		strb	r3, [r0, #6]
 121 00a0 7047     		bx	lr
 123              		.align	1
 124              		.global	EXTI_GenerateSWInterrupt
 125              		.thumb
 126              		.thumb_func
 128              	EXTI_GenerateSWInterrupt:
 129              		@ args = 0, pretend = 0, frame = 0
 130              		@ frame_needed = 0, uses_anonymous_args = 0
 131              		@ link register save eliminated.
 132 00a2 024B     		ldr	r3, .L13
 133 00a4 1A69     		ldr	r2, [r3, #16]
 134 00a6 1043     		orrs	r0, r0, r2
 135 00a8 1861     		str	r0, [r3, #16]
 136 00aa 7047     		bx	lr
 137              	.L14:
 138              		.align	2
 139              	.L13:
 140 00ac 00040140 		.word	1073808384
 142              		.align	1
 143              		.global	EXTI_GetFlagStatus
 144              		.thumb
 145              		.thumb_func
 147              	EXTI_GetFlagStatus:
 148              		@ args = 0, pretend = 0, frame = 0
 149              		@ frame_needed = 0, uses_anonymous_args = 0
 150              		@ link register save eliminated.
 151 00b0 034B     		ldr	r3, .L16
 152 00b2 5B69     		ldr	r3, [r3, #20]
 153 00b4 1842     		tst	r0, r3
 154 00b6 0CBF     		ite	eq
 155 00b8 0020     		moveq	r0, #0
 156 00ba 0120     		movne	r0, #1
 157 00bc 7047     		bx	lr
 158              	.L17:
 159 00be 00BF     		.align	2
 160              	.L16:
 161 00c0 00040140 		.word	1073808384
 163              		.align	1
 164              		.global	EXTI_ClearFlag
 165              		.thumb
 166              		.thumb_func
 168              	EXTI_ClearFlag:
 169              		@ args = 0, pretend = 0, frame = 0
 170              		@ frame_needed = 0, uses_anonymous_args = 0
 171              		@ link register save eliminated.
 172 00c4 014B     		ldr	r3, .L19
 173 00c6 5861     		str	r0, [r3, #20]
 174 00c8 7047     		bx	lr
 175              	.L20:
 176 00ca 00BF     		.align	2
 177              	.L19:
 178 00cc 00040140 		.word	1073808384
 180              		.align	1
 181              		.global	EXTI_GetITStatus
 182              		.thumb
 183              		.thumb_func
 185              	EXTI_GetITStatus:
 186              		@ args = 0, pretend = 0, frame = 0
 187              		@ frame_needed = 0, uses_anonymous_args = 0
 188              		@ link register save eliminated.
 189 00d0 054B     		ldr	r3, .L24
 190 00d2 1A68     		ldr	r2, [r3, #0]
 191 00d4 5B69     		ldr	r3, [r3, #20]
 192 00d6 0340     		ands	r3, r0, r3
 193 00d8 04D0     		beq	.L23
 194 00da 1042     		tst	r0, r2
 195 00dc 0CBF     		ite	eq
 196 00de 0020     		moveq	r0, #0
 197 00e0 0120     		movne	r0, #1
 198 00e2 7047     		bx	lr
 199              	.L23:
 200 00e4 1846     		mov	r0, r3
 201 00e6 7047     		bx	lr
 202              	.L25:
 203              		.align	2
 204              	.L24:
 205 00e8 00040140 		.word	1073808384
 207              		.align	1
 208              		.global	EXTI_ClearITPendingBit
 209              		.thumb
 210              		.thumb_func
 212              	EXTI_ClearITPendingBit:
 213              		@ args = 0, pretend = 0, frame = 0
 214              		@ frame_needed = 0, uses_anonymous_args = 0
 215              		@ link register save eliminated.
 216 00ec 014B     		ldr	r3, .L27
 217 00ee 5861     		str	r0, [r3, #20]
 218 00f0 7047     		bx	lr
 219              	.L28:
 220 00f2 00BF     		.align	2
 221              	.L27:
 222 00f4 00040140 		.word	1073808384
 224              		.ident	"GCC: (Linaro GCC 4.7-2013.01) 4.7.3 20130102 (prerelease)"