
test1i2c.elf:     file format elf32-littlearm

Sections:
Idx Name          Size      VMA       LMA       File off  Algn
  0 .isr_vector   000001d0  08000000  08000000  00008000  2**0
                  CONTENTS, ALLOC, LOAD, READONLY, DATA
  1 .text         00004e64  080001d0  080001d0  000081d0  2**2
                  CONTENTS, ALLOC, LOAD, READONLY, CODE
  2 .ARM.attributes 00000031  08005034  08005034  00010228  2**0
                  CONTENTS, READONLY
  3 .data         00000228  20000000  080055e9  00010000  2**2
                  CONTENTS, ALLOC, LOAD, DATA
  4 .bss          000002ec  20000228  08005814  00010228  2**2
                  ALLOC
  5 ._user_heap_stack 00000100  20000514  08005b00  00010228  2**0
                  ALLOC
  6 .comment      0000003a  00000000  00000000  00010259  2**0
                  CONTENTS, READONLY

Disassembly of section .text:

080001d0 <I2C_DMAConfig.part.0>:
 80001d0:	b510      	push	{r4, lr}
 80001d2:	4c12      	ldr	r4, [pc, #72]	; (800021c <I2C_DMAConfig.part.0+0x4c>)
 80001d4:	2310      	movs	r3, #16
 80001d6:	60a3      	str	r3, [r4, #8]
 80001d8:	4b11      	ldr	r3, [pc, #68]	; (8000220 <I2C_DMAConfig.part.0+0x50>)
 80001da:	6061      	str	r1, [r4, #4]
 80001dc:	4298      	cmp	r0, r3
 80001de:	60e2      	str	r2, [r4, #12]
 80001e0:	d10b      	bne.n	80001fa <I2C_DMAConfig.part.0+0x2a>
 80001e2:	3310      	adds	r3, #16
 80001e4:	480f      	ldr	r0, [pc, #60]	; (8000224 <I2C_DMAConfig.part.0+0x54>)
 80001e6:	2100      	movs	r1, #0
 80001e8:	6023      	str	r3, [r4, #0]
 80001ea:	f001 fccd 	bl	8001b88 <DMA_Cmd>
 80001ee:	480d      	ldr	r0, [pc, #52]	; (8000224 <I2C_DMAConfig.part.0+0x54>)
 80001f0:	4621      	mov	r1, r4
 80001f2:	f001 fc9d 	bl	8001b30 <DMA_Init>
 80001f6:	480b      	ldr	r0, [pc, #44]	; (8000224 <I2C_DMAConfig.part.0+0x54>)
 80001f8:	e00a      	b.n	8000210 <I2C_DMAConfig.part.0+0x40>
 80001fa:	4b0b      	ldr	r3, [pc, #44]	; (8000228 <I2C_DMAConfig.part.0+0x58>)
 80001fc:	480b      	ldr	r0, [pc, #44]	; (800022c <I2C_DMAConfig.part.0+0x5c>)
 80001fe:	2100      	movs	r1, #0
 8000200:	6023      	str	r3, [r4, #0]
 8000202:	f001 fcc1 	bl	8001b88 <DMA_Cmd>
 8000206:	4809      	ldr	r0, [pc, #36]	; (800022c <I2C_DMAConfig.part.0+0x5c>)
 8000208:	4621      	mov	r1, r4
 800020a:	f001 fc91 	bl	8001b30 <DMA_Init>
 800020e:	4807      	ldr	r0, [pc, #28]	; (800022c <I2C_DMAConfig.part.0+0x5c>)
 8000210:	2101      	movs	r1, #1
 8000212:	e8bd 4010 	ldmia.w	sp!, {r4, lr}
 8000216:	f001 bcb7 	b.w	8001b88 <DMA_Cmd>
 800021a:	bf00      	nop
 800021c:	20000238 	.word	0x20000238
 8000220:	40005400 	.word	0x40005400
 8000224:	4002006c 	.word	0x4002006c
 8000228:	40005810 	.word	0x40005810
 800022c:	40020044 	.word	0x40020044

08000230 <I2C_Master_BufferWrite>:
 8000230:	e92d 41f3 	stmdb	sp!, {r0, r1, r4, r5, r6, r7, r8, lr}
 8000234:	2700      	movs	r7, #0
 8000236:	9700      	str	r7, [sp, #0]
 8000238:	9701      	str	r7, [sp, #4]
 800023a:	f8b0 8004 	ldrh.w	r8, [r0, #4]
 800023e:	2b02      	cmp	r3, #2
 8000240:	fa1f f888 	uxth.w	r8, r8
 8000244:	f448 7880 	orr.w	r8, r8, #256	; 0x100
 8000248:	4604      	mov	r4, r0
 800024a:	468c      	mov	ip, r1
 800024c:	4615      	mov	r5, r2
 800024e:	f89d 6020 	ldrb.w	r6, [sp, #32]
 8000252:	f8a0 8004 	strh.w	r8, [r0, #4]
 8000256:	d159      	bne.n	800030c <I2C_Master_BufferWrite+0xdc>
 8000258:	f64f 73ff 	movw	r3, #65535	; 0xffff
 800025c:	9301      	str	r3, [sp, #4]
 800025e:	f7ff ffb7 	bl	80001d0 <I2C_DMAConfig.part.0>
 8000262:	88a3      	ldrh	r3, [r4, #4]
 8000264:	b29b      	uxth	r3, r3
 8000266:	f443 6300 	orr.w	r3, r3, #2048	; 0x800
 800026a:	80a3      	strh	r3, [r4, #4]
 800026c:	8823      	ldrh	r3, [r4, #0]
 800026e:	b29b      	uxth	r3, r3
 8000270:	f443 7380 	orr.w	r3, r3, #256	; 0x100
 8000274:	8023      	strh	r3, [r4, #0]
 8000276:	e005      	b.n	8000284 <I2C_Master_BufferWrite+0x54>
 8000278:	9b01      	ldr	r3, [sp, #4]
 800027a:	1e5a      	subs	r2, r3, #1
 800027c:	9201      	str	r2, [sp, #4]
 800027e:	b90b      	cbnz	r3, 8000284 <I2C_Master_BufferWrite+0x54>
 8000280:	2000      	movs	r0, #0
 8000282:	e0a8      	b.n	80003d6 <I2C_Master_BufferWrite+0x1a6>
 8000284:	8aa3      	ldrh	r3, [r4, #20]
 8000286:	07d8      	lsls	r0, r3, #31
 8000288:	d5f6      	bpl.n	8000278 <I2C_Master_BufferWrite+0x48>
 800028a:	f64f 73ff 	movw	r3, #65535	; 0xffff
 800028e:	9301      	str	r3, [sp, #4]
 8000290:	4b52      	ldr	r3, [pc, #328]	; (80003dc <I2C_Master_BufferWrite+0x1ac>)
 8000292:	f006 06fe 	and.w	r6, r6, #254	; 0xfe
 8000296:	701e      	strb	r6, [r3, #0]
 8000298:	781b      	ldrb	r3, [r3, #0]
 800029a:	b2db      	uxtb	r3, r3
 800029c:	8223      	strh	r3, [r4, #16]
 800029e:	e004      	b.n	80002aa <I2C_Master_BufferWrite+0x7a>
 80002a0:	9b01      	ldr	r3, [sp, #4]
 80002a2:	1e5a      	subs	r2, r3, #1
 80002a4:	9201      	str	r2, [sp, #4]
 80002a6:	2b00      	cmp	r3, #0
 80002a8:	d0ea      	beq.n	8000280 <I2C_Master_BufferWrite+0x50>
 80002aa:	8aa3      	ldrh	r3, [r4, #20]
 80002ac:	0799      	lsls	r1, r3, #30
 80002ae:	d5f7      	bpl.n	80002a0 <I2C_Master_BufferWrite+0x70>
 80002b0:	8b23      	ldrh	r3, [r4, #24]
 80002b2:	b29b      	uxth	r3, r3
 80002b4:	9300      	str	r3, [sp, #0]
 80002b6:	4b4a      	ldr	r3, [pc, #296]	; (80003e0 <I2C_Master_BufferWrite+0x1b0>)
 80002b8:	429c      	cmp	r4, r3
 80002ba:	d10c      	bne.n	80002d6 <I2C_Master_BufferWrite+0xa6>
 80002bc:	f44f 1000 	mov.w	r0, #2097152	; 0x200000
 80002c0:	f001 fc76 	bl	8001bb0 <DMA_GetFlagStatus>
 80002c4:	2800      	cmp	r0, #0
 80002c6:	d0f9      	beq.n	80002bc <I2C_Master_BufferWrite+0x8c>
 80002c8:	4846      	ldr	r0, [pc, #280]	; (80003e4 <I2C_Master_BufferWrite+0x1b4>)
 80002ca:	2100      	movs	r1, #0
 80002cc:	f001 fc5c 	bl	8001b88 <DMA_Cmd>
 80002d0:	f44f 1000 	mov.w	r0, #2097152	; 0x200000
 80002d4:	e00b      	b.n	80002ee <I2C_Master_BufferWrite+0xbe>
 80002d6:	f44f 5000 	mov.w	r0, #8192	; 0x2000
 80002da:	f001 fc69 	bl	8001bb0 <DMA_GetFlagStatus>
 80002de:	2800      	cmp	r0, #0
 80002e0:	d0f9      	beq.n	80002d6 <I2C_Master_BufferWrite+0xa6>
 80002e2:	4841      	ldr	r0, [pc, #260]	; (80003e8 <I2C_Master_BufferWrite+0x1b8>)
 80002e4:	2100      	movs	r1, #0
 80002e6:	f001 fc4f 	bl	8001b88 <DMA_Cmd>
 80002ea:	f44f 5000 	mov.w	r0, #8192	; 0x2000
 80002ee:	f001 fc6d 	bl	8001bcc <DMA_ClearFlag>
 80002f2:	8aa3      	ldrh	r3, [r4, #20]
 80002f4:	075a      	lsls	r2, r3, #29
 80002f6:	d5fc      	bpl.n	80002f2 <I2C_Master_BufferWrite+0xc2>
 80002f8:	8823      	ldrh	r3, [r4, #0]
 80002fa:	b29b      	uxth	r3, r3
 80002fc:	f443 7300 	orr.w	r3, r3, #512	; 0x200
 8000300:	8023      	strh	r3, [r4, #0]
 8000302:	8823      	ldrh	r3, [r4, #0]
 8000304:	059b      	lsls	r3, r3, #22
 8000306:	d4fc      	bmi.n	8000302 <I2C_Master_BufferWrite+0xd2>
 8000308:	2001      	movs	r0, #1
 800030a:	e064      	b.n	80003d6 <I2C_Master_BufferWrite+0x1a6>
 800030c:	2b00      	cmp	r3, #0
 800030e:	d140      	bne.n	8000392 <I2C_Master_BufferWrite+0x162>
 8000310:	f64f 73ff 	movw	r3, #65535	; 0xffff
 8000314:	9301      	str	r3, [sp, #4]
 8000316:	8803      	ldrh	r3, [r0, #0]
 8000318:	b29b      	uxth	r3, r3
 800031a:	f443 7380 	orr.w	r3, r3, #256	; 0x100
 800031e:	8003      	strh	r3, [r0, #0]
 8000320:	e004      	b.n	800032c <I2C_Master_BufferWrite+0xfc>
 8000322:	9b01      	ldr	r3, [sp, #4]
 8000324:	1e5a      	subs	r2, r3, #1
 8000326:	9201      	str	r2, [sp, #4]
 8000328:	2b00      	cmp	r3, #0
 800032a:	d0a9      	beq.n	8000280 <I2C_Master_BufferWrite+0x50>
 800032c:	8aa3      	ldrh	r3, [r4, #20]
 800032e:	07d8      	lsls	r0, r3, #31
 8000330:	d5f7      	bpl.n	8000322 <I2C_Master_BufferWrite+0xf2>
 8000332:	4b2a      	ldr	r3, [pc, #168]	; (80003dc <I2C_Master_BufferWrite+0x1ac>)
 8000334:	f006 06fe 	and.w	r6, r6, #254	; 0xfe
 8000338:	701e      	strb	r6, [r3, #0]
 800033a:	781b      	ldrb	r3, [r3, #0]
 800033c:	b2db      	uxtb	r3, r3
 800033e:	8223      	strh	r3, [r4, #16]
 8000340:	f64f 73ff 	movw	r3, #65535	; 0xffff
 8000344:	9301      	str	r3, [sp, #4]
 8000346:	e004      	b.n	8000352 <I2C_Master_BufferWrite+0x122>
 8000348:	9b01      	ldr	r3, [sp, #4]
 800034a:	1e5a      	subs	r2, r3, #1
 800034c:	9201      	str	r2, [sp, #4]
 800034e:	2b00      	cmp	r3, #0
 8000350:	d096      	beq.n	8000280 <I2C_Master_BufferWrite+0x50>
 8000352:	8aa3      	ldrh	r3, [r4, #20]
 8000354:	0799      	lsls	r1, r3, #30
 8000356:	d5f7      	bpl.n	8000348 <I2C_Master_BufferWrite+0x118>
 8000358:	8b23      	ldrh	r3, [r4, #24]
 800035a:	4465      	add	r5, ip
 800035c:	b29b      	uxth	r3, r3
 800035e:	9300      	str	r3, [sp, #0]
 8000360:	4663      	mov	r3, ip
 8000362:	f813 2b01 	ldrb.w	r2, [r3], #1
 8000366:	8222      	strh	r2, [r4, #16]
 8000368:	e005      	b.n	8000376 <I2C_Master_BufferWrite+0x146>
 800036a:	8aa2      	ldrh	r2, [r4, #20]
 800036c:	0752      	lsls	r2, r2, #29
 800036e:	d5fc      	bpl.n	800036a <I2C_Master_BufferWrite+0x13a>
 8000370:	f813 2b01 	ldrb.w	r2, [r3], #1
 8000374:	8222      	strh	r2, [r4, #16]
 8000376:	42ab      	cmp	r3, r5
 8000378:	d1f7      	bne.n	800036a <I2C_Master_BufferWrite+0x13a>
 800037a:	8aa3      	ldrh	r3, [r4, #20]
 800037c:	0758      	lsls	r0, r3, #29
 800037e:	d5fc      	bpl.n	800037a <I2C_Master_BufferWrite+0x14a>
 8000380:	8823      	ldrh	r3, [r4, #0]
 8000382:	b29b      	uxth	r3, r3
 8000384:	f443 7300 	orr.w	r3, r3, #512	; 0x200
 8000388:	8023      	strh	r3, [r4, #0]
 800038a:	8823      	ldrh	r3, [r4, #0]
 800038c:	0599      	lsls	r1, r3, #22
 800038e:	d4fc      	bmi.n	800038a <I2C_Master_BufferWrite+0x15a>
 8000390:	e7ba      	b.n	8000308 <I2C_Master_BufferWrite+0xd8>
 8000392:	8883      	ldrh	r3, [r0, #4]
 8000394:	f006 06fe 	and.w	r6, r6, #254	; 0xfe
 8000398:	b29b      	uxth	r3, r3
 800039a:	f443 7300 	orr.w	r3, r3, #512	; 0x200
 800039e:	8083      	strh	r3, [r0, #4]
 80003a0:	8883      	ldrh	r3, [r0, #4]
 80003a2:	b29b      	uxth	r3, r3
 80003a4:	f443 6380 	orr.w	r3, r3, #1024	; 0x400
 80003a8:	8083      	strh	r3, [r0, #4]
 80003aa:	4b10      	ldr	r3, [pc, #64]	; (80003ec <I2C_Master_BufferWrite+0x1bc>)
 80003ac:	601f      	str	r7, [r3, #0]
 80003ae:	4b0b      	ldr	r3, [pc, #44]	; (80003dc <I2C_Master_BufferWrite+0x1ac>)
 80003b0:	701e      	strb	r6, [r3, #0]
 80003b2:	4b0b      	ldr	r3, [pc, #44]	; (80003e0 <I2C_Master_BufferWrite+0x1b0>)
 80003b4:	4298      	cmp	r0, r3
 80003b6:	bf0c      	ite	eq
 80003b8:	4b0d      	ldreq	r3, [pc, #52]	; (80003f0 <I2C_Master_BufferWrite+0x1c0>)
 80003ba:	4b0e      	ldrne	r3, [pc, #56]	; (80003f4 <I2C_Master_BufferWrite+0x1c4>)
 80003bc:	601a      	str	r2, [r3, #0]
 80003be:	8803      	ldrh	r3, [r0, #0]
 80003c0:	b29b      	uxth	r3, r3
 80003c2:	f443 7380 	orr.w	r3, r3, #256	; 0x100
 80003c6:	8003      	strh	r3, [r0, #0]
 80003c8:	8823      	ldrh	r3, [r4, #0]
 80003ca:	05da      	lsls	r2, r3, #23
 80003cc:	d4fc      	bmi.n	80003c8 <I2C_Master_BufferWrite+0x198>
 80003ce:	8b23      	ldrh	r3, [r4, #24]
 80003d0:	079b      	lsls	r3, r3, #30
 80003d2:	d4fc      	bmi.n	80003ce <I2C_Master_BufferWrite+0x19e>
 80003d4:	e798      	b.n	8000308 <I2C_Master_BufferWrite+0xd8>
 80003d6:	e8bd 81fc 	ldmia.w	sp!, {r2, r3, r4, r5, r6, r7, r8, pc}
 80003da:	bf00      	nop
 80003dc:	20000264 	.word	0x20000264
 80003e0:	40005400 	.word	0x40005400
 80003e4:	4002006c 	.word	0x4002006c
 80003e8:	40020044 	.word	0x40020044
 80003ec:	20000228 	.word	0x20000228
 80003f0:	2000026c 	.word	0x2000026c
 80003f4:	20000268 	.word	0x20000268

080003f8 <I2C_Slave_BufferReadWrite>:
 80003f8:	8883      	ldrh	r3, [r0, #4]
 80003fa:	2902      	cmp	r1, #2
 80003fc:	b29b      	uxth	r3, r3
 80003fe:	f443 7300 	orr.w	r3, r3, #512	; 0x200
 8000402:	8083      	strh	r3, [r0, #4]
 8000404:	8883      	ldrh	r3, [r0, #4]
 8000406:	b29b      	uxth	r3, r3
 8000408:	f443 7380 	orr.w	r3, r3, #256	; 0x100
 800040c:	8083      	strh	r3, [r0, #4]
 800040e:	8883      	ldrh	r3, [r0, #4]
 8000410:	b29b      	uxth	r3, r3
 8000412:	bf0c      	ite	eq
 8000414:	f443 6300 	orreq.w	r3, r3, #2048	; 0x800
 8000418:	f443 6380 	orrne.w	r3, r3, #1024	; 0x400
 800041c:	8083      	strh	r3, [r0, #4]
 800041e:	4770      	bx	lr

08000420 <I2C_LowLevel_Init>:
 8000420:	b5f0      	push	{r4, r5, r6, r7, lr}
 8000422:	2101      	movs	r1, #1
 8000424:	b087      	sub	sp, #28
 8000426:	4606      	mov	r6, r0
 8000428:	2008      	movs	r0, #8
 800042a:	f003 f86d 	bl	8003508 <RCC_APB2PeriphClockCmd>
 800042e:	2001      	movs	r0, #1
 8000430:	4601      	mov	r1, r0
 8000432:	f003 f85d 	bl	80034f0 <RCC_AHBPeriphClockCmd>
 8000436:	4b52      	ldr	r3, [pc, #328]	; (8000580 <I2C_LowLevel_Init+0x160>)
 8000438:	429e      	cmp	r6, r3
 800043a:	d119      	bne.n	8000470 <I2C_LowLevel_Init+0x50>
 800043c:	f44f 1000 	mov.w	r0, #2097152	; 0x200000
 8000440:	2101      	movs	r1, #1
 8000442:	f003 f86d 	bl	8003520 <RCC_APB1PeriphClockCmd>
 8000446:	23c0      	movs	r3, #192	; 0xc0
 8000448:	f8ad 3004 	strh.w	r3, [sp, #4]
 800044c:	2303      	movs	r3, #3
 800044e:	f88d 3006 	strb.w	r3, [sp, #6]
 8000452:	484c      	ldr	r0, [pc, #304]	; (8000584 <I2C_LowLevel_Init+0x164>)
 8000454:	231c      	movs	r3, #28
 8000456:	a901      	add	r1, sp, #4
 8000458:	f88d 3007 	strb.w	r3, [sp, #7]
 800045c:	f002 f993 	bl	8002786 <GPIO_Init>
 8000460:	f44f 1000 	mov.w	r0, #2097152	; 0x200000
 8000464:	2101      	movs	r1, #1
 8000466:	f003 f873 	bl	8003550 <RCC_APB1PeriphResetCmd>
 800046a:	f44f 1000 	mov.w	r0, #2097152	; 0x200000
 800046e:	e021      	b.n	80004b4 <I2C_LowLevel_Init+0x94>
 8000470:	f44f 0080 	mov.w	r0, #4194304	; 0x400000
 8000474:	2101      	movs	r1, #1
 8000476:	f003 f853 	bl	8003520 <RCC_APB1PeriphClockCmd>
 800047a:	f44f 6380 	mov.w	r3, #1024	; 0x400
 800047e:	f8ad 3004 	strh.w	r3, [sp, #4]
 8000482:	2303      	movs	r3, #3
 8000484:	f88d 3006 	strb.w	r3, [sp, #6]
 8000488:	483e      	ldr	r0, [pc, #248]	; (8000584 <I2C_LowLevel_Init+0x164>)
 800048a:	231c      	movs	r3, #28
 800048c:	a901      	add	r1, sp, #4
 800048e:	f88d 3007 	strb.w	r3, [sp, #7]
 8000492:	f002 f978 	bl	8002786 <GPIO_Init>
 8000496:	f44f 6300 	mov.w	r3, #2048	; 0x800
 800049a:	483a      	ldr	r0, [pc, #232]	; (8000584 <I2C_LowLevel_Init+0x164>)
 800049c:	a901      	add	r1, sp, #4
 800049e:	f8ad 3004 	strh.w	r3, [sp, #4]
 80004a2:	f002 f970 	bl	8002786 <GPIO_Init>
 80004a6:	f44f 0080 	mov.w	r0, #4194304	; 0x400000
 80004aa:	2101      	movs	r1, #1
 80004ac:	f003 f850 	bl	8003550 <RCC_APB1PeriphResetCmd>
 80004b0:	f44f 0080 	mov.w	r0, #4194304	; 0x400000
 80004b4:	2100      	movs	r1, #0
 80004b6:	f003 f84b 	bl	8003550 <RCC_APB1PeriphResetCmd>
 80004ba:	f44f 4380 	mov.w	r3, #16384	; 0x4000
 80004be:	f8ad 300e 	strh.w	r3, [sp, #14]
 80004c2:	f8ad 3014 	strh.w	r3, [sp, #20]
 80004c6:	4b30      	ldr	r3, [pc, #192]	; (8000588 <I2C_LowLevel_Init+0x168>)
 80004c8:	ac06      	add	r4, sp, #24
 80004ca:	4f2d      	ldr	r7, [pc, #180]	; (8000580 <I2C_LowLevel_Init+0x160>)
 80004cc:	f844 3d10 	str.w	r3, [r4, #-16]!
 80004d0:	2228      	movs	r2, #40	; 0x28
 80004d2:	4621      	mov	r1, r4
 80004d4:	f8ad 2010 	strh.w	r2, [sp, #16]
 80004d8:	4638      	mov	r0, r7
 80004da:	f44f 6280 	mov.w	r2, #1024	; 0x400
 80004de:	2500      	movs	r5, #0
 80004e0:	f8ad 2012 	strh.w	r2, [sp, #18]
 80004e4:	f8ad 500c 	strh.w	r5, [sp, #12]
 80004e8:	f002 fa4a 	bl	8002980 <I2C_Init>
 80004ec:	2330      	movs	r3, #48	; 0x30
 80004ee:	4621      	mov	r1, r4
 80004f0:	4826      	ldr	r0, [pc, #152]	; (800058c <I2C_LowLevel_Init+0x16c>)
 80004f2:	f8ad 3010 	strh.w	r3, [sp, #16]
 80004f6:	f002 fa43 	bl	8002980 <I2C_Init>
 80004fa:	42be      	cmp	r6, r7
 80004fc:	4c24      	ldr	r4, [pc, #144]	; (8000590 <I2C_LowLevel_Init+0x170>)
 80004fe:	d11d      	bne.n	800053c <I2C_LowLevel_Init+0x11c>
 8000500:	4824      	ldr	r0, [pc, #144]	; (8000594 <I2C_LowLevel_Init+0x174>)
 8000502:	f001 fa99 	bl	8001a38 <DMA_DeInit>
 8000506:	4b24      	ldr	r3, [pc, #144]	; (8000598 <I2C_LowLevel_Init+0x178>)
 8000508:	4822      	ldr	r0, [pc, #136]	; (8000594 <I2C_LowLevel_Init+0x174>)
 800050a:	e884 0028 	stmia.w	r4, {r3, r5}
 800050e:	2310      	movs	r3, #16
 8000510:	60a3      	str	r3, [r4, #8]
 8000512:	f64f 73ff 	movw	r3, #65535	; 0xffff
 8000516:	60e3      	str	r3, [r4, #12]
 8000518:	2380      	movs	r3, #128	; 0x80
 800051a:	6163      	str	r3, [r4, #20]
 800051c:	4621      	mov	r1, r4
 800051e:	f44f 5340 	mov.w	r3, #12288	; 0x3000
 8000522:	6263      	str	r3, [r4, #36]	; 0x24
 8000524:	6125      	str	r5, [r4, #16]
 8000526:	61a5      	str	r5, [r4, #24]
 8000528:	61e5      	str	r5, [r4, #28]
 800052a:	6225      	str	r5, [r4, #32]
 800052c:	62a5      	str	r5, [r4, #40]	; 0x28
 800052e:	f001 faff 	bl	8001b30 <DMA_Init>
 8000532:	481a      	ldr	r0, [pc, #104]	; (800059c <I2C_LowLevel_Init+0x17c>)
 8000534:	f001 fa80 	bl	8001a38 <DMA_DeInit>
 8000538:	4818      	ldr	r0, [pc, #96]	; (800059c <I2C_LowLevel_Init+0x17c>)
 800053a:	e01c      	b.n	8000576 <I2C_LowLevel_Init+0x156>
 800053c:	4818      	ldr	r0, [pc, #96]	; (80005a0 <I2C_LowLevel_Init+0x180>)
 800053e:	f001 fa7b 	bl	8001a38 <DMA_DeInit>
 8000542:	4b18      	ldr	r3, [pc, #96]	; (80005a4 <I2C_LowLevel_Init+0x184>)
 8000544:	4816      	ldr	r0, [pc, #88]	; (80005a0 <I2C_LowLevel_Init+0x180>)
 8000546:	e884 0028 	stmia.w	r4, {r3, r5}
 800054a:	2310      	movs	r3, #16
 800054c:	60a3      	str	r3, [r4, #8]
 800054e:	f64f 73ff 	movw	r3, #65535	; 0xffff
 8000552:	60e3      	str	r3, [r4, #12]
 8000554:	2380      	movs	r3, #128	; 0x80
 8000556:	6163      	str	r3, [r4, #20]
 8000558:	4621      	mov	r1, r4
 800055a:	f44f 5340 	mov.w	r3, #12288	; 0x3000
 800055e:	6263      	str	r3, [r4, #36]	; 0x24
 8000560:	6125      	str	r5, [r4, #16]
 8000562:	61a5      	str	r5, [r4, #24]
 8000564:	61e5      	str	r5, [r4, #28]
 8000566:	6225      	str	r5, [r4, #32]
 8000568:	62a5      	str	r5, [r4, #40]	; 0x28
 800056a:	f001 fae1 	bl	8001b30 <DMA_Init>
 800056e:	480e      	ldr	r0, [pc, #56]	; (80005a8 <I2C_LowLevel_Init+0x188>)
 8000570:	f001 fa62 	bl	8001a38 <DMA_DeInit>
 8000574:	480c      	ldr	r0, [pc, #48]	; (80005a8 <I2C_LowLevel_Init+0x188>)
 8000576:	4621      	mov	r1, r4
 8000578:	f001 fada 	bl	8001b30 <DMA_Init>
 800057c:	b007      	add	sp, #28
 800057e:	bdf0      	pop	{r4, r5, r6, r7, pc}
 8000580:	40005400 	.word	0x40005400
 8000584:	40010c00 	.word	0x40010c00
 8000588:	00061a80 	.word	0x00061a80
 800058c:	40005800 	.word	0x40005800
 8000590:	20000238 	.word	0x20000238
 8000594:	4002006c 	.word	0x4002006c
 8000598:	40005410 	.word	0x40005410
 800059c:	40020080 	.word	0x40020080
 80005a0:	40020044 	.word	0x40020044
 80005a4:	40005810 	.word	0x40005810
 80005a8:	40020058 	.word	0x40020058

080005ac <I2C_DMAConfig>:
 80005ac:	b5f8      	push	{r3, r4, r5, r6, r7, lr}
 80005ae:	4605      	mov	r5, r0
 80005b0:	460f      	mov	r7, r1
 80005b2:	4616      	mov	r6, r2
 80005b4:	b91b      	cbnz	r3, 80005be <I2C_DMAConfig+0x12>
 80005b6:	e8bd 40f8 	ldmia.w	sp!, {r3, r4, r5, r6, r7, lr}
 80005ba:	f7ff be09 	b.w	80001d0 <I2C_DMAConfig.part.0>
 80005be:	4c11      	ldr	r4, [pc, #68]	; (8000604 <I2C_DMAConfig+0x58>)
 80005c0:	4b11      	ldr	r3, [pc, #68]	; (8000608 <I2C_DMAConfig+0x5c>)
 80005c2:	6061      	str	r1, [r4, #4]
 80005c4:	4298      	cmp	r0, r3
 80005c6:	f04f 0100 	mov.w	r1, #0
 80005ca:	60a1      	str	r1, [r4, #8]
 80005cc:	60e2      	str	r2, [r4, #12]
 80005ce:	d10a      	bne.n	80005e6 <I2C_DMAConfig+0x3a>
 80005d0:	3310      	adds	r3, #16
 80005d2:	480e      	ldr	r0, [pc, #56]	; (800060c <I2C_DMAConfig+0x60>)
 80005d4:	6023      	str	r3, [r4, #0]
 80005d6:	f001 fad7 	bl	8001b88 <DMA_Cmd>
 80005da:	480c      	ldr	r0, [pc, #48]	; (800060c <I2C_DMAConfig+0x60>)
 80005dc:	4621      	mov	r1, r4
 80005de:	f001 faa7 	bl	8001b30 <DMA_Init>
 80005e2:	480a      	ldr	r0, [pc, #40]	; (800060c <I2C_DMAConfig+0x60>)
 80005e4:	e009      	b.n	80005fa <I2C_DMAConfig+0x4e>
 80005e6:	4b0a      	ldr	r3, [pc, #40]	; (8000610 <I2C_DMAConfig+0x64>)
 80005e8:	480a      	ldr	r0, [pc, #40]	; (8000614 <I2C_DMAConfig+0x68>)
 80005ea:	6023      	str	r3, [r4, #0]
 80005ec:	f001 facc 	bl	8001b88 <DMA_Cmd>
 80005f0:	4808      	ldr	r0, [pc, #32]	; (8000614 <I2C_DMAConfig+0x68>)
 80005f2:	4621      	mov	r1, r4
 80005f4:	f001 fa9c 	bl	8001b30 <DMA_Init>
 80005f8:	4806      	ldr	r0, [pc, #24]	; (8000614 <I2C_DMAConfig+0x68>)
 80005fa:	2101      	movs	r1, #1
 80005fc:	e8bd 40f8 	ldmia.w	sp!, {r3, r4, r5, r6, r7, lr}
 8000600:	f001 bac2 	b.w	8001b88 <DMA_Cmd>
 8000604:	20000238 	.word	0x20000238
 8000608:	40005400 	.word	0x40005400
 800060c:	40020080 	.word	0x40020080
 8000610:	40005810 	.word	0x40005810
 8000614:	40020058 	.word	0x40020058

08000618 <I2C_Master_BufferRead>:
 8000618:	b5f7      	push	{r0, r1, r2, r4, r5, r6, r7, lr}
 800061a:	f04f 0c00 	mov.w	ip, #0
 800061e:	f8cd c000 	str.w	ip, [sp]
 8000622:	f8cd c004 	str.w	ip, [sp, #4]
 8000626:	f8b0 c004 	ldrh.w	ip, [r0, #4]
 800062a:	2b02      	cmp	r3, #2
 800062c:	fa1f fc8c 	uxth.w	ip, ip
 8000630:	f44c 7c80 	orr.w	ip, ip, #256	; 0x100
 8000634:	4604      	mov	r4, r0
 8000636:	460f      	mov	r7, r1
 8000638:	4615      	mov	r5, r2
 800063a:	f89d 6020 	ldrb.w	r6, [sp, #32]
 800063e:	f8a0 c004 	strh.w	ip, [r0, #4]
 8000642:	d15b      	bne.n	80006fc <I2C_Master_BufferRead+0xe4>
 8000644:	2301      	movs	r3, #1
 8000646:	f7ff ffb1 	bl	80005ac <I2C_DMAConfig>
 800064a:	88a3      	ldrh	r3, [r4, #4]
 800064c:	b29b      	uxth	r3, r3
 800064e:	f443 5380 	orr.w	r3, r3, #4096	; 0x1000
 8000652:	80a3      	strh	r3, [r4, #4]
 8000654:	88a3      	ldrh	r3, [r4, #4]
 8000656:	b29b      	uxth	r3, r3
 8000658:	f443 6300 	orr.w	r3, r3, #2048	; 0x800
 800065c:	80a3      	strh	r3, [r4, #4]
 800065e:	f64f 73ff 	movw	r3, #65535	; 0xffff
 8000662:	9301      	str	r3, [sp, #4]
 8000664:	8823      	ldrh	r3, [r4, #0]
 8000666:	b29b      	uxth	r3, r3
 8000668:	f443 7380 	orr.w	r3, r3, #256	; 0x100
 800066c:	8023      	strh	r3, [r4, #0]
 800066e:	e005      	b.n	800067c <I2C_Master_BufferRead+0x64>
 8000670:	9b01      	ldr	r3, [sp, #4]
 8000672:	1e5a      	subs	r2, r3, #1
 8000674:	9201      	str	r2, [sp, #4]
 8000676:	b90b      	cbnz	r3, 800067c <I2C_Master_BufferRead+0x64>
 8000678:	2000      	movs	r0, #0
 800067a:	e156      	b.n	800092a <I2C_Master_BufferRead+0x312>
 800067c:	8aa3      	ldrh	r3, [r4, #20]
 800067e:	07d9      	lsls	r1, r3, #31
 8000680:	d5f6      	bpl.n	8000670 <I2C_Master_BufferRead+0x58>
 8000682:	f64f 73ff 	movw	r3, #65535	; 0xffff
 8000686:	9301      	str	r3, [sp, #4]
 8000688:	4b90      	ldr	r3, [pc, #576]	; (80008cc <I2C_Master_BufferRead+0x2b4>)
 800068a:	f046 0601 	orr.w	r6, r6, #1
 800068e:	701e      	strb	r6, [r3, #0]
 8000690:	781b      	ldrb	r3, [r3, #0]
 8000692:	b2db      	uxtb	r3, r3
 8000694:	8223      	strh	r3, [r4, #16]
 8000696:	e004      	b.n	80006a2 <I2C_Master_BufferRead+0x8a>
 8000698:	9b01      	ldr	r3, [sp, #4]
 800069a:	1e5a      	subs	r2, r3, #1
 800069c:	9201      	str	r2, [sp, #4]
 800069e:	2b00      	cmp	r3, #0
 80006a0:	d0ea      	beq.n	8000678 <I2C_Master_BufferRead+0x60>
 80006a2:	8aa3      	ldrh	r3, [r4, #20]
 80006a4:	079a      	lsls	r2, r3, #30
 80006a6:	d5f7      	bpl.n	8000698 <I2C_Master_BufferRead+0x80>
 80006a8:	8b23      	ldrh	r3, [r4, #24]
 80006aa:	b29b      	uxth	r3, r3
 80006ac:	9300      	str	r3, [sp, #0]
 80006ae:	4b88      	ldr	r3, [pc, #544]	; (80008d0 <I2C_Master_BufferRead+0x2b8>)
 80006b0:	429c      	cmp	r4, r3
 80006b2:	d10c      	bne.n	80006ce <I2C_Master_BufferRead+0xb6>
 80006b4:	f04f 7000 	mov.w	r0, #33554432	; 0x2000000
 80006b8:	f001 fa7a 	bl	8001bb0 <DMA_GetFlagStatus>
 80006bc:	2800      	cmp	r0, #0
 80006be:	d0f9      	beq.n	80006b4 <I2C_Master_BufferRead+0x9c>
 80006c0:	4884      	ldr	r0, [pc, #528]	; (80008d4 <I2C_Master_BufferRead+0x2bc>)
 80006c2:	2100      	movs	r1, #0
 80006c4:	f001 fa60 	bl	8001b88 <DMA_Cmd>
 80006c8:	f04f 7000 	mov.w	r0, #33554432	; 0x2000000
 80006cc:	e00b      	b.n	80006e6 <I2C_Master_BufferRead+0xce>
 80006ce:	f44f 3000 	mov.w	r0, #131072	; 0x20000
 80006d2:	f001 fa6d 	bl	8001bb0 <DMA_GetFlagStatus>
 80006d6:	2800      	cmp	r0, #0
 80006d8:	d0f9      	beq.n	80006ce <I2C_Master_BufferRead+0xb6>
 80006da:	487f      	ldr	r0, [pc, #508]	; (80008d8 <I2C_Master_BufferRead+0x2c0>)
 80006dc:	2100      	movs	r1, #0
 80006de:	f001 fa53 	bl	8001b88 <DMA_Cmd>
 80006e2:	f44f 3000 	mov.w	r0, #131072	; 0x20000
 80006e6:	f001 fa71 	bl	8001bcc <DMA_ClearFlag>
 80006ea:	8823      	ldrh	r3, [r4, #0]
 80006ec:	b29b      	uxth	r3, r3
 80006ee:	f443 7300 	orr.w	r3, r3, #512	; 0x200
 80006f2:	8023      	strh	r3, [r4, #0]
 80006f4:	8823      	ldrh	r3, [r4, #0]
 80006f6:	059b      	lsls	r3, r3, #22
 80006f8:	d4fc      	bmi.n	80006f4 <I2C_Master_BufferRead+0xdc>
 80006fa:	e115      	b.n	8000928 <I2C_Master_BufferRead+0x310>
 80006fc:	2b00      	cmp	r3, #0
 80006fe:	f040 80ed 	bne.w	80008dc <I2C_Master_BufferRead+0x2c4>
 8000702:	2a01      	cmp	r2, #1
 8000704:	f64f 73ff 	movw	r3, #65535	; 0xffff
 8000708:	d13a      	bne.n	8000780 <I2C_Master_BufferRead+0x168>
 800070a:	9301      	str	r3, [sp, #4]
 800070c:	8803      	ldrh	r3, [r0, #0]
 800070e:	b29b      	uxth	r3, r3
 8000710:	f443 7380 	orr.w	r3, r3, #256	; 0x100
 8000714:	8003      	strh	r3, [r0, #0]
 8000716:	e004      	b.n	8000722 <I2C_Master_BufferRead+0x10a>
 8000718:	9b01      	ldr	r3, [sp, #4]
 800071a:	1e5a      	subs	r2, r3, #1
 800071c:	9201      	str	r2, [sp, #4]
 800071e:	2b00      	cmp	r3, #0
 8000720:	d0aa      	beq.n	8000678 <I2C_Master_BufferRead+0x60>
 8000722:	8aa3      	ldrh	r3, [r4, #20]
 8000724:	07d8      	lsls	r0, r3, #31
 8000726:	d5f7      	bpl.n	8000718 <I2C_Master_BufferRead+0x100>
 8000728:	4b68      	ldr	r3, [pc, #416]	; (80008cc <I2C_Master_BufferRead+0x2b4>)
 800072a:	f046 0601 	orr.w	r6, r6, #1
 800072e:	701e      	strb	r6, [r3, #0]
 8000730:	781b      	ldrb	r3, [r3, #0]
 8000732:	b2db      	uxtb	r3, r3
 8000734:	8223      	strh	r3, [r4, #16]
 8000736:	f64f 73ff 	movw	r3, #65535	; 0xffff
 800073a:	9301      	str	r3, [sp, #4]
 800073c:	e004      	b.n	8000748 <I2C_Master_BufferRead+0x130>
 800073e:	9b01      	ldr	r3, [sp, #4]
 8000740:	1e5a      	subs	r2, r3, #1
 8000742:	9201      	str	r2, [sp, #4]
 8000744:	2b00      	cmp	r3, #0
 8000746:	d097      	beq.n	8000678 <I2C_Master_BufferRead+0x60>
 8000748:	8aa3      	ldrh	r3, [r4, #20]
 800074a:	0799      	lsls	r1, r3, #30
 800074c:	d5f7      	bpl.n	800073e <I2C_Master_BufferRead+0x126>
 800074e:	8823      	ldrh	r3, [r4, #0]
 8000750:	f423 6380 	bic.w	r3, r3, #1024	; 0x400
 8000754:	041b      	lsls	r3, r3, #16
 8000756:	0c1b      	lsrs	r3, r3, #16
 8000758:	8023      	strh	r3, [r4, #0]
 800075a:	b672      	cpsid	i
 800075c:	8b23      	ldrh	r3, [r4, #24]
 800075e:	b29b      	uxth	r3, r3
 8000760:	9300      	str	r3, [sp, #0]
 8000762:	8823      	ldrh	r3, [r4, #0]
 8000764:	b29b      	uxth	r3, r3
 8000766:	f443 7300 	orr.w	r3, r3, #512	; 0x200
 800076a:	8023      	strh	r3, [r4, #0]
 800076c:	b662      	cpsie	i
 800076e:	8aa3      	ldrh	r3, [r4, #20]
 8000770:	065a      	lsls	r2, r3, #25
 8000772:	d5fc      	bpl.n	800076e <I2C_Master_BufferRead+0x156>
 8000774:	8a23      	ldrh	r3, [r4, #16]
 8000776:	703b      	strb	r3, [r7, #0]
 8000778:	8823      	ldrh	r3, [r4, #0]
 800077a:	059b      	lsls	r3, r3, #22
 800077c:	d4fc      	bmi.n	8000778 <I2C_Master_BufferRead+0x160>
 800077e:	e0ce      	b.n	800091e <I2C_Master_BufferRead+0x306>
 8000780:	2a02      	cmp	r2, #2
 8000782:	d14e      	bne.n	8000822 <I2C_Master_BufferRead+0x20a>
 8000784:	8802      	ldrh	r2, [r0, #0]
 8000786:	b292      	uxth	r2, r2
 8000788:	f442 6200 	orr.w	r2, r2, #2048	; 0x800
 800078c:	8002      	strh	r2, [r0, #0]
 800078e:	9301      	str	r3, [sp, #4]
 8000790:	8803      	ldrh	r3, [r0, #0]
 8000792:	b29b      	uxth	r3, r3
 8000794:	f443 7380 	orr.w	r3, r3, #256	; 0x100
 8000798:	8003      	strh	r3, [r0, #0]
 800079a:	e005      	b.n	80007a8 <I2C_Master_BufferRead+0x190>
 800079c:	9b01      	ldr	r3, [sp, #4]
 800079e:	1e5a      	subs	r2, r3, #1
 80007a0:	9201      	str	r2, [sp, #4]
 80007a2:	2b00      	cmp	r3, #0
 80007a4:	f43f af68 	beq.w	8000678 <I2C_Master_BufferRead+0x60>
 80007a8:	8aa3      	ldrh	r3, [r4, #20]
 80007aa:	07d8      	lsls	r0, r3, #31
 80007ac:	d5f6      	bpl.n	800079c <I2C_Master_BufferRead+0x184>
 80007ae:	f64f 73ff 	movw	r3, #65535	; 0xffff
 80007b2:	9301      	str	r3, [sp, #4]
 80007b4:	4b45      	ldr	r3, [pc, #276]	; (80008cc <I2C_Master_BufferRead+0x2b4>)
 80007b6:	f046 0601 	orr.w	r6, r6, #1
 80007ba:	701e      	strb	r6, [r3, #0]
 80007bc:	781b      	ldrb	r3, [r3, #0]
 80007be:	b2db      	uxtb	r3, r3
 80007c0:	8223      	strh	r3, [r4, #16]
 80007c2:	e005      	b.n	80007d0 <I2C_Master_BufferRead+0x1b8>
 80007c4:	9b01      	ldr	r3, [sp, #4]
 80007c6:	1e5a      	subs	r2, r3, #1
 80007c8:	9201      	str	r2, [sp, #4]
 80007ca:	2b00      	cmp	r3, #0
 80007cc:	f43f af54 	beq.w	8000678 <I2C_Master_BufferRead+0x60>
 80007d0:	8aa3      	ldrh	r3, [r4, #20]
 80007d2:	0799      	lsls	r1, r3, #30
 80007d4:	d5f6      	bpl.n	80007c4 <I2C_Master_BufferRead+0x1ac>
 80007d6:	b672      	cpsid	i
 80007d8:	8b23      	ldrh	r3, [r4, #24]
 80007da:	b29b      	uxth	r3, r3
 80007dc:	9300      	str	r3, [sp, #0]
 80007de:	8823      	ldrh	r3, [r4, #0]
 80007e0:	f423 6380 	bic.w	r3, r3, #1024	; 0x400
 80007e4:	041b      	lsls	r3, r3, #16
 80007e6:	0c1b      	lsrs	r3, r3, #16
 80007e8:	8023      	strh	r3, [r4, #0]
 80007ea:	b662      	cpsie	i
 80007ec:	8aa3      	ldrh	r3, [r4, #20]
 80007ee:	075a      	lsls	r2, r3, #29
 80007f0:	d5fc      	bpl.n	80007ec <I2C_Master_BufferRead+0x1d4>
 80007f2:	b672      	cpsid	i
 80007f4:	2101      	movs	r1, #1
 80007f6:	4620      	mov	r0, r4
 80007f8:	f002 f968 	bl	8002acc <I2C_GenerateSTOP>
 80007fc:	8a23      	ldrh	r3, [r4, #16]
 80007fe:	703b      	strb	r3, [r7, #0]
 8000800:	b662      	cpsie	i
 8000802:	8a23      	ldrh	r3, [r4, #16]
 8000804:	707b      	strb	r3, [r7, #1]
 8000806:	8823      	ldrh	r3, [r4, #0]
 8000808:	059b      	lsls	r3, r3, #22
 800080a:	d4fc      	bmi.n	8000806 <I2C_Master_BufferRead+0x1ee>
 800080c:	8823      	ldrh	r3, [r4, #0]
 800080e:	b29b      	uxth	r3, r3
 8000810:	f443 6380 	orr.w	r3, r3, #1024	; 0x400
 8000814:	8023      	strh	r3, [r4, #0]
 8000816:	8823      	ldrh	r3, [r4, #0]
 8000818:	f423 6300 	bic.w	r3, r3, #2048	; 0x800
 800081c:	041b      	lsls	r3, r3, #16
 800081e:	0c1b      	lsrs	r3, r3, #16
 8000820:	e081      	b.n	8000926 <I2C_Master_BufferRead+0x30e>
 8000822:	9301      	str	r3, [sp, #4]
 8000824:	8803      	ldrh	r3, [r0, #0]
 8000826:	b29b      	uxth	r3, r3
 8000828:	f443 7380 	orr.w	r3, r3, #256	; 0x100
 800082c:	8003      	strh	r3, [r0, #0]
 800082e:	e005      	b.n	800083c <I2C_Master_BufferRead+0x224>
 8000830:	9b01      	ldr	r3, [sp, #4]
 8000832:	1e5a      	subs	r2, r3, #1
 8000834:	9201      	str	r2, [sp, #4]
 8000836:	2b00      	cmp	r3, #0
 8000838:	f43f af1e 	beq.w	8000678 <I2C_Master_BufferRead+0x60>
 800083c:	8aa3      	ldrh	r3, [r4, #20]
 800083e:	07d8      	lsls	r0, r3, #31
 8000840:	d5f6      	bpl.n	8000830 <I2C_Master_BufferRead+0x218>
 8000842:	f64f 73ff 	movw	r3, #65535	; 0xffff
 8000846:	9301      	str	r3, [sp, #4]
 8000848:	4b20      	ldr	r3, [pc, #128]	; (80008cc <I2C_Master_BufferRead+0x2b4>)
 800084a:	f046 0601 	orr.w	r6, r6, #1
 800084e:	701e      	strb	r6, [r3, #0]
 8000850:	781b      	ldrb	r3, [r3, #0]
 8000852:	b2db      	uxtb	r3, r3
 8000854:	8223      	strh	r3, [r4, #16]
 8000856:	e005      	b.n	8000864 <I2C_Master_BufferRead+0x24c>
 8000858:	9b01      	ldr	r3, [sp, #4]
 800085a:	1e5a      	subs	r2, r3, #1
 800085c:	9201      	str	r2, [sp, #4]
 800085e:	2b00      	cmp	r3, #0
 8000860:	f43f af0a 	beq.w	8000678 <I2C_Master_BufferRead+0x60>
 8000864:	8aa3      	ldrh	r3, [r4, #20]
 8000866:	0799      	lsls	r1, r3, #30
 8000868:	d5f6      	bpl.n	8000858 <I2C_Master_BufferRead+0x240>
 800086a:	8b23      	ldrh	r3, [r4, #24]
 800086c:	b29b      	uxth	r3, r3
 800086e:	9300      	str	r3, [sp, #0]
 8000870:	e025      	b.n	80008be <I2C_Master_BufferRead+0x2a6>
 8000872:	2d03      	cmp	r5, #3
 8000874:	d008      	beq.n	8000888 <I2C_Master_BufferRead+0x270>
 8000876:	8aa2      	ldrh	r2, [r4, #20]
 8000878:	0752      	lsls	r2, r2, #29
 800087a:	d5fc      	bpl.n	8000876 <I2C_Master_BufferRead+0x25e>
 800087c:	8a22      	ldrh	r2, [r4, #16]
 800087e:	3d01      	subs	r5, #1
 8000880:	2d03      	cmp	r5, #3
 8000882:	f803 2b01 	strb.w	r2, [r3], #1
 8000886:	d11b      	bne.n	80008c0 <I2C_Master_BufferRead+0x2a8>
 8000888:	8aa2      	ldrh	r2, [r4, #20]
 800088a:	0755      	lsls	r5, r2, #29
 800088c:	d5fc      	bpl.n	8000888 <I2C_Master_BufferRead+0x270>
 800088e:	8822      	ldrh	r2, [r4, #0]
 8000890:	f422 6280 	bic.w	r2, r2, #1024	; 0x400
 8000894:	0412      	lsls	r2, r2, #16
 8000896:	0c12      	lsrs	r2, r2, #16
 8000898:	8022      	strh	r2, [r4, #0]
 800089a:	b672      	cpsid	i
 800089c:	8a22      	ldrh	r2, [r4, #16]
 800089e:	701a      	strb	r2, [r3, #0]
 80008a0:	8822      	ldrh	r2, [r4, #0]
 80008a2:	b292      	uxth	r2, r2
 80008a4:	f442 7200 	orr.w	r2, r2, #512	; 0x200
 80008a8:	8022      	strh	r2, [r4, #0]
 80008aa:	8a22      	ldrh	r2, [r4, #16]
 80008ac:	705a      	strb	r2, [r3, #1]
 80008ae:	b662      	cpsie	i
 80008b0:	1c9f      	adds	r7, r3, #2
 80008b2:	8aa2      	ldrh	r2, [r4, #20]
 80008b4:	0650      	lsls	r0, r2, #25
 80008b6:	d5fc      	bpl.n	80008b2 <I2C_Master_BufferRead+0x29a>
 80008b8:	8a22      	ldrh	r2, [r4, #16]
 80008ba:	2500      	movs	r5, #0
 80008bc:	709a      	strb	r2, [r3, #2]
 80008be:	463b      	mov	r3, r7
 80008c0:	2d00      	cmp	r5, #0
 80008c2:	d1d6      	bne.n	8000872 <I2C_Master_BufferRead+0x25a>
 80008c4:	8823      	ldrh	r3, [r4, #0]
 80008c6:	0599      	lsls	r1, r3, #22
 80008c8:	d4fc      	bmi.n	80008c4 <I2C_Master_BufferRead+0x2ac>
 80008ca:	e028      	b.n	800091e <I2C_Master_BufferRead+0x306>
 80008cc:	20000264 	.word	0x20000264
 80008d0:	40005400 	.word	0x40005400
 80008d4:	40020080 	.word	0x40020080
 80008d8:	40020058 	.word	0x40020058
 80008dc:	8883      	ldrh	r3, [r0, #4]
 80008de:	2201      	movs	r2, #1
 80008e0:	b29b      	uxth	r3, r3
 80008e2:	f443 7300 	orr.w	r3, r3, #512	; 0x200
 80008e6:	8083      	strh	r3, [r0, #4]
 80008e8:	8883      	ldrh	r3, [r0, #4]
 80008ea:	4316      	orrs	r6, r2
 80008ec:	b29b      	uxth	r3, r3
 80008ee:	f443 6380 	orr.w	r3, r3, #1024	; 0x400
 80008f2:	8083      	strh	r3, [r0, #4]
 80008f4:	4b0d      	ldr	r3, [pc, #52]	; (800092c <I2C_Master_BufferRead+0x314>)
 80008f6:	601a      	str	r2, [r3, #0]
 80008f8:	4b0d      	ldr	r3, [pc, #52]	; (8000930 <I2C_Master_BufferRead+0x318>)
 80008fa:	701e      	strb	r6, [r3, #0]
 80008fc:	4b0d      	ldr	r3, [pc, #52]	; (8000934 <I2C_Master_BufferRead+0x31c>)
 80008fe:	4298      	cmp	r0, r3
 8000900:	bf0c      	ite	eq
 8000902:	4b0d      	ldreq	r3, [pc, #52]	; (8000938 <I2C_Master_BufferRead+0x320>)
 8000904:	4b0d      	ldrne	r3, [pc, #52]	; (800093c <I2C_Master_BufferRead+0x324>)
 8000906:	601d      	str	r5, [r3, #0]
 8000908:	8803      	ldrh	r3, [r0, #0]
 800090a:	b29b      	uxth	r3, r3
 800090c:	f443 7380 	orr.w	r3, r3, #256	; 0x100
 8000910:	8003      	strh	r3, [r0, #0]
 8000912:	8823      	ldrh	r3, [r4, #0]
 8000914:	05da      	lsls	r2, r3, #23
 8000916:	d4fc      	bmi.n	8000912 <I2C_Master_BufferRead+0x2fa>
 8000918:	8b23      	ldrh	r3, [r4, #24]
 800091a:	079b      	lsls	r3, r3, #30
 800091c:	d4fc      	bmi.n	8000918 <I2C_Master_BufferRead+0x300>
 800091e:	8823      	ldrh	r3, [r4, #0]
 8000920:	b29b      	uxth	r3, r3
 8000922:	f443 6380 	orr.w	r3, r3, #1024	; 0x400
 8000926:	8023      	strh	r3, [r4, #0]
 8000928:	2001      	movs	r0, #1
 800092a:	bdfe      	pop	{r1, r2, r3, r4, r5, r6, r7, pc}
 800092c:	20000228 	.word	0x20000228
 8000930:	20000264 	.word	0x20000264
 8000934:	40005400 	.word	0x40005400
 8000938:	2000026c 	.word	0x2000026c
 800093c:	20000268 	.word	0x20000268

08000940 <__get_PSP>:
 8000940:	f3ef 8009 	mrs	r0, PSP
 8000944:	4600      	mov	r0, r0
 8000946:	4770      	bx	lr

08000948 <__set_PSP>:
 8000948:	f380 8809 	msr	PSP, r0
 800094c:	4770      	bx	lr

0800094e <__get_MSP>:
 800094e:	f3ef 8008 	mrs	r0, MSP
 8000952:	4600      	mov	r0, r0
 8000954:	4770      	bx	lr

08000956 <__set_MSP>:
 8000956:	f380 8808 	msr	MSP, r0
 800095a:	4770      	bx	lr

0800095c <__get_BASEPRI>:
 800095c:	f3ef 8012 	mrs	r0, BASEPRI_MAX
 8000960:	4770      	bx	lr

08000962 <__set_BASEPRI>:
 8000962:	f380 8811 	msr	BASEPRI, r0
 8000966:	4770      	bx	lr

08000968 <__get_PRIMASK>:
 8000968:	f3ef 8010 	mrs	r0, PRIMASK
 800096c:	4770      	bx	lr

0800096e <__set_PRIMASK>:
 800096e:	f380 8810 	msr	PRIMASK, r0
 8000972:	4770      	bx	lr

08000974 <__get_FAULTMASK>:
 8000974:	f3ef 8013 	mrs	r0, FAULTMASK
 8000978:	4770      	bx	lr

0800097a <__set_FAULTMASK>:
 800097a:	f380 8813 	msr	FAULTMASK, r0
 800097e:	4770      	bx	lr

08000980 <__get_CONTROL>:
 8000980:	f3ef 8014 	mrs	r0, CONTROL
 8000984:	4770      	bx	lr

08000986 <__set_CONTROL>:
 8000986:	f380 8814 	msr	CONTROL, r0
 800098a:	4770      	bx	lr

0800098c <__REV>:
 800098c:	ba00      	rev	r0, r0
 800098e:	4770      	bx	lr

08000990 <__REV16>:
 8000990:	ba40      	rev16	r0, r0
 8000992:	4770      	bx	lr

08000994 <__REVSH>:
 8000994:	bac0      	revsh	r0, r0
 8000996:	4770      	bx	lr

08000998 <__RBIT>:
 8000998:	fa90 f0a0 	rbit	r0, r0
 800099c:	4770      	bx	lr

0800099e <__LDREXB>:
 800099e:	e8d0 0f4f 	ldrexb	r0, [r0]
 80009a2:	b2c0      	uxtb	r0, r0
 80009a4:	4770      	bx	lr

080009a6 <__LDREXH>:
 80009a6:	e8d0 0f5f 	ldrexh	r0, [r0]
 80009aa:	b280      	uxth	r0, r0
 80009ac:	4770      	bx	lr

080009ae <__LDREXW>:
 80009ae:	e850 0f00 	ldrex	r0, [r0]
 80009b2:	4770      	bx	lr

080009b4 <__STREXB>:
 80009b4:	e8c1 0f43 	strexb	r3, r0, [r1]
 80009b8:	4618      	mov	r0, r3
 80009ba:	4770      	bx	lr

080009bc <__STREXH>:
 80009bc:	e8c1 0f53 	strexh	r3, r0, [r1]
 80009c0:	4618      	mov	r0, r3
 80009c2:	4770      	bx	lr

080009c4 <__STREXW>:
 80009c4:	e841 0300 	strex	r3, r0, [r1]
 80009c8:	4618      	mov	r0, r3
 80009ca:	4770      	bx	lr

080009cc <ranval>:
 80009cc:	4603      	mov	r3, r0
 80009ce:	b510      	push	{r4, lr}
 80009d0:	6840      	ldr	r0, [r0, #4]
 80009d2:	689c      	ldr	r4, [r3, #8]
 80009d4:	681a      	ldr	r2, [r3, #0]
 80009d6:	68d9      	ldr	r1, [r3, #12]
 80009d8:	eba2 1270 	sub.w	r2, r2, r0, ror #5
 80009dc:	ea80 30f4 	eor.w	r0, r0, r4, ror #15
 80009e0:	6018      	str	r0, [r3, #0]
 80009e2:	190c      	adds	r4, r1, r4
 80009e4:	1880      	adds	r0, r0, r2
 80009e6:	1851      	adds	r1, r2, r1
 80009e8:	605c      	str	r4, [r3, #4]
 80009ea:	6099      	str	r1, [r3, #8]
 80009ec:	60d8      	str	r0, [r3, #12]
 80009ee:	bd10      	pop	{r4, pc}

080009f0 <random_stoner_light.5625>:
 80009f0:	6903      	ldr	r3, [r0, #16]
 80009f2:	b510      	push	{r4, lr}
 80009f4:	6003      	str	r3, [r0, #0]
 80009f6:	6943      	ldr	r3, [r0, #20]
 80009f8:	4604      	mov	r4, r0
 80009fa:	6043      	str	r3, [r0, #4]
 80009fc:	3b80      	subs	r3, #128	; 0x80
 80009fe:	f5b3 6fe0 	cmp.w	r3, #1792	; 0x700
 8000a02:	4813      	ldr	r0, [pc, #76]	; (8000a50 <random_stoner_light.5625+0x60>)
 8000a04:	d308      	bcc.n	8000a18 <random_stoner_light.5625+0x28>
 8000a06:	f7ff ffe1 	bl	80009cc <ranval>
 8000a0a:	f44f 73fa 	mov.w	r3, #500	; 0x1f4
 8000a0e:	b280      	uxth	r0, r0
 8000a10:	4343      	muls	r3, r0
 8000a12:	0c1b      	lsrs	r3, r3, #16
 8000a14:	3332      	adds	r3, #50	; 0x32
 8000a16:	e008      	b.n	8000a2a <random_stoner_light.5625+0x3a>
 8000a18:	f7ff ffd8 	bl	80009cc <ranval>
 8000a1c:	f640 33b8 	movw	r3, #3000	; 0xbb8
 8000a20:	b280      	uxth	r0, r0
 8000a22:	4343      	muls	r3, r0
 8000a24:	0c1b      	lsrs	r3, r3, #16
 8000a26:	f503 63fa 	add.w	r3, r3, #2000	; 0x7d0
 8000a2a:	60e3      	str	r3, [r4, #12]
 8000a2c:	2300      	movs	r3, #0
 8000a2e:	60a3      	str	r3, [r4, #8]
 8000a30:	4807      	ldr	r0, [pc, #28]	; (8000a50 <random_stoner_light.5625+0x60>)
 8000a32:	f7ff ffcb 	bl	80009cc <ranval>
 8000a36:	f44f 5340 	mov.w	r3, #12288	; 0x3000
 8000a3a:	b280      	uxth	r0, r0
 8000a3c:	4343      	muls	r3, r0
 8000a3e:	0c1b      	lsrs	r3, r3, #16
 8000a40:	6123      	str	r3, [r4, #16]
 8000a42:	4803      	ldr	r0, [pc, #12]	; (8000a50 <random_stoner_light.5625+0x60>)
 8000a44:	f7ff ffc2 	bl	80009cc <ranval>
 8000a48:	f3c0 104a 	ubfx	r0, r0, #5, #11
 8000a4c:	6160      	str	r0, [r4, #20]
 8000a4e:	bd10      	pop	{r4, pc}
 8000a50:	20000500 	.word	0x20000500

08000a54 <raninit>:
 8000a54:	b538      	push	{r3, r4, r5, lr}
 8000a56:	4b06      	ldr	r3, [pc, #24]	; (8000a70 <raninit+0x1c>)
 8000a58:	4604      	mov	r4, r0
 8000a5a:	6003      	str	r3, [r0, #0]
 8000a5c:	60c1      	str	r1, [r0, #12]
 8000a5e:	6081      	str	r1, [r0, #8]
 8000a60:	6041      	str	r1, [r0, #4]
 8000a62:	2514      	movs	r5, #20
 8000a64:	4620      	mov	r0, r4
 8000a66:	f7ff ffb1 	bl	80009cc <ranval>
 8000a6a:	3d01      	subs	r5, #1
 8000a6c:	d1fa      	bne.n	8000a64 <raninit+0x10>
 8000a6e:	bd38      	pop	{r3, r4, r5, pc}
 8000a70:	f1ea5eed 	.word	0xf1ea5eed

08000a74 <GPIO_Configuration>:
 8000a74:	b537      	push	{r0, r1, r2, r4, r5, lr}
 8000a76:	4c13      	ldr	r4, [pc, #76]	; (8000ac4 <GPIO_Configuration+0x50>)
 8000a78:	2301      	movs	r3, #1
 8000a7a:	f8ad 3004 	strh.w	r3, [sp, #4]
 8000a7e:	2503      	movs	r5, #3
 8000a80:	2314      	movs	r3, #20
 8000a82:	4620      	mov	r0, r4
 8000a84:	a901      	add	r1, sp, #4
 8000a86:	f88d 3007 	strb.w	r3, [sp, #7]
 8000a8a:	f88d 5006 	strb.w	r5, [sp, #6]
 8000a8e:	f001 fe7a 	bl	8002786 <GPIO_Init>
 8000a92:	f44f 7380 	mov.w	r3, #256	; 0x100
 8000a96:	f8ad 3004 	strh.w	r3, [sp, #4]
 8000a9a:	a901      	add	r1, sp, #4
 8000a9c:	2310      	movs	r3, #16
 8000a9e:	480a      	ldr	r0, [pc, #40]	; (8000ac8 <GPIO_Configuration+0x54>)
 8000aa0:	f88d 3007 	strb.w	r3, [sp, #7]
 8000aa4:	f88d 5006 	strb.w	r5, [sp, #6]
 8000aa8:	f001 fe6d 	bl	8002786 <GPIO_Init>
 8000aac:	2300      	movs	r3, #0
 8000aae:	f88d 3007 	strb.w	r3, [sp, #7]
 8000ab2:	2304      	movs	r3, #4
 8000ab4:	4620      	mov	r0, r4
 8000ab6:	eb0d 0103 	add.w	r1, sp, r3
 8000aba:	f8ad 3004 	strh.w	r3, [sp, #4]
 8000abe:	f001 fe62 	bl	8002786 <GPIO_Init>
 8000ac2:	bd3e      	pop	{r1, r2, r3, r4, r5, pc}
 8000ac4:	40010800 	.word	0x40010800
 8000ac8:	40010c00 	.word	0x40010c00

08000acc <LED_White_OFF>:
 8000acc:	4b01      	ldr	r3, [pc, #4]	; (8000ad4 <LED_White_OFF+0x8>)
 8000ace:	2201      	movs	r2, #1
 8000ad0:	611a      	str	r2, [r3, #16]
 8000ad2:	4770      	bx	lr
 8000ad4:	40010800 	.word	0x40010800

08000ad8 <LED_White_ON>:
 8000ad8:	4b01      	ldr	r3, [pc, #4]	; (8000ae0 <LED_White_ON+0x8>)
 8000ada:	2201      	movs	r2, #1
 8000adc:	615a      	str	r2, [r3, #20]
 8000ade:	4770      	bx	lr
 8000ae0:	40010800 	.word	0x40010800

08000ae4 <RCC_Configuration>:
 8000ae4:	2001      	movs	r0, #1
 8000ae6:	b508      	push	{r3, lr}
 8000ae8:	4601      	mov	r1, r0
 8000aea:	f002 fd01 	bl	80034f0 <RCC_AHBPeriphClockCmd>
 8000aee:	f44f 1000 	mov.w	r0, #2097152	; 0x200000
 8000af2:	2101      	movs	r1, #1
 8000af4:	f002 fd14 	bl	8003520 <RCC_APB1PeriphClockCmd>
 8000af8:	f244 0001 	movw	r0, #16385	; 0x4001
 8000afc:	2101      	movs	r1, #1
 8000afe:	f002 fd03 	bl	8003508 <RCC_APB2PeriphClockCmd>
 8000b02:	2101      	movs	r1, #1
 8000b04:	f44f 7003 	mov.w	r0, #524	; 0x20c
 8000b08:	f002 fcfe 	bl	8003508 <RCC_APB2PeriphClockCmd>
 8000b0c:	4b08      	ldr	r3, [pc, #32]	; (8000b30 <RCC_Configuration+0x4c>)
 8000b0e:	21f0      	movs	r1, #240	; 0xf0
 8000b10:	681a      	ldr	r2, [r3, #0]
 8000b12:	f44f 737a 	mov.w	r3, #1000	; 0x3e8
 8000b16:	fbb2 f2f3 	udiv	r2, r2, r3
 8000b1a:	4b06      	ldr	r3, [pc, #24]	; (8000b34 <RCC_Configuration+0x50>)
 8000b1c:	3a01      	subs	r2, #1
 8000b1e:	605a      	str	r2, [r3, #4]
 8000b20:	4a05      	ldr	r2, [pc, #20]	; (8000b38 <RCC_Configuration+0x54>)
 8000b22:	f882 1023 	strb.w	r1, [r2, #35]	; 0x23
 8000b26:	2200      	movs	r2, #0
 8000b28:	609a      	str	r2, [r3, #8]
 8000b2a:	2207      	movs	r2, #7
 8000b2c:	601a      	str	r2, [r3, #0]
 8000b2e:	bd08      	pop	{r3, pc}
 8000b30:	20000214 	.word	0x20000214
 8000b34:	e000e010 	.word	0xe000e010
 8000b38:	e000ed00 	.word	0xe000ed00

08000b3c <Delay>:
 8000b3c:	b082      	sub	sp, #8
 8000b3e:	9001      	str	r0, [sp, #4]
 8000b40:	9a01      	ldr	r2, [sp, #4]
 8000b42:	4b03      	ldr	r3, [pc, #12]	; (8000b50 <Delay+0x14>)
 8000b44:	601a      	str	r2, [r3, #0]
 8000b46:	681a      	ldr	r2, [r3, #0]
 8000b48:	2a00      	cmp	r2, #0
 8000b4a:	d1fc      	bne.n	8000b46 <Delay+0xa>
 8000b4c:	b002      	add	sp, #8
 8000b4e:	4770      	bx	lr
 8000b50:	2000022c 	.word	0x2000022c

08000b54 <TimingDelay_Decrement>:
 8000b54:	4b03      	ldr	r3, [pc, #12]	; (8000b64 <TimingDelay_Decrement+0x10>)
 8000b56:	681a      	ldr	r2, [r3, #0]
 8000b58:	b112      	cbz	r2, 8000b60 <TimingDelay_Decrement+0xc>
 8000b5a:	681a      	ldr	r2, [r3, #0]
 8000b5c:	3a01      	subs	r2, #1
 8000b5e:	601a      	str	r2, [r3, #0]
 8000b60:	4770      	bx	lr
 8000b62:	bf00      	nop
 8000b64:	2000022c 	.word	0x2000022c

08000b68 <colorWheel>:
 8000b68:	b570      	push	{r4, r5, r6, lr}
 8000b6a:	6804      	ldr	r4, [r0, #0]
 8000b6c:	f44f 5540 	mov.w	r5, #12288	; 0x3000
 8000b70:	2c00      	cmp	r4, #0
 8000b72:	bfbc      	itt	lt
 8000b74:	f504 543f 	addlt.w	r4, r4, #12224	; 0x2fc0
 8000b78:	343f      	addlt	r4, #63	; 0x3f
 8000b7a:	fb94 f6f5 	sdiv	r6, r4, r5
 8000b7e:	fb05 4416 	mls	r4, r5, r6, r4
 8000b82:	6004      	str	r4, [r0, #0]
 8000b84:	4811      	ldr	r0, [pc, #68]	; (8000bcc <colorWheel+0x64>)
 8000b86:	4020      	ands	r0, r4
 8000b88:	2800      	cmp	r0, #0
 8000b8a:	da05      	bge.n	8000b98 <colorWheel+0x30>
 8000b8c:	3801      	subs	r0, #1
 8000b8e:	ea6f 5000 	mvn.w	r0, r0, lsl #20
 8000b92:	ea6f 5010 	mvn.w	r0, r0, lsr #20
 8000b96:	3001      	adds	r0, #1
 8000b98:	f3c4 3401 	ubfx	r4, r4, #12, #2
 8000b9c:	2c01      	cmp	r4, #1
 8000b9e:	f5c0 657f 	rsb	r5, r0, #4080	; 0xff0
 8000ba2:	f04f 0600 	mov.w	r6, #0
 8000ba6:	d006      	beq.n	8000bb6 <colorWheel+0x4e>
 8000ba8:	2c02      	cmp	r4, #2
 8000baa:	d009      	beq.n	8000bc0 <colorWheel+0x58>
 8000bac:	350f      	adds	r5, #15
 8000bae:	600d      	str	r5, [r1, #0]
 8000bb0:	6010      	str	r0, [r2, #0]
 8000bb2:	601e      	str	r6, [r3, #0]
 8000bb4:	bd70      	pop	{r4, r5, r6, pc}
 8000bb6:	350f      	adds	r5, #15
 8000bb8:	600e      	str	r6, [r1, #0]
 8000bba:	6015      	str	r5, [r2, #0]
 8000bbc:	6018      	str	r0, [r3, #0]
 8000bbe:	bd70      	pop	{r4, r5, r6, pc}
 8000bc0:	350f      	adds	r5, #15
 8000bc2:	6008      	str	r0, [r1, #0]
 8000bc4:	6016      	str	r6, [r2, #0]
 8000bc6:	601d      	str	r5, [r3, #0]
 8000bc8:	bd70      	pop	{r4, r5, r6, pc}
 8000bca:	bf00      	nop
 8000bcc:	80000fff 	.word	0x80000fff

08000bd0 <NVIC_Configuration>:
 8000bd0:	b508      	push	{r3, lr}
 8000bd2:	f44f 7040 	mov.w	r0, #768	; 0x300
 8000bd6:	f000 f80f 	bl	8000bf8 <NVIC_PriorityGroupConfig>
 8000bda:	4b06      	ldr	r3, [pc, #24]	; (8000bf4 <NVIC_Configuration+0x24>)
 8000bdc:	2200      	movs	r2, #0
 8000bde:	f883 231f 	strb.w	r2, [r3, #799]	; 0x31f
 8000be2:	f04f 4200 	mov.w	r2, #2147483648	; 0x80000000
 8000be6:	601a      	str	r2, [r3, #0]
 8000be8:	2210      	movs	r2, #16
 8000bea:	f883 2320 	strb.w	r2, [r3, #800]	; 0x320
 8000bee:	2201      	movs	r2, #1
 8000bf0:	605a      	str	r2, [r3, #4]
 8000bf2:	bd08      	pop	{r3, pc}
 8000bf4:	e000e100 	.word	0xe000e100

08000bf8 <NVIC_PriorityGroupConfig>:
 8000bf8:	f040 60bf 	orr.w	r0, r0, #100139008	; 0x5f80000
 8000bfc:	4b02      	ldr	r3, [pc, #8]	; (8000c08 <NVIC_PriorityGroupConfig+0x10>)
 8000bfe:	f440 3000 	orr.w	r0, r0, #131072	; 0x20000
 8000c02:	60d8      	str	r0, [r3, #12]
 8000c04:	4770      	bx	lr
 8000c06:	bf00      	nop
 8000c08:	e000ed00 	.word	0xe000ed00

08000c0c <NVIC_Init>:
 8000c0c:	78c3      	ldrb	r3, [r0, #3]
 8000c0e:	b510      	push	{r4, lr}
 8000c10:	b1f3      	cbz	r3, 8000c50 <NVIC_Init+0x44>
 8000c12:	4b15      	ldr	r3, [pc, #84]	; (8000c68 <NVIC_Init+0x5c>)
 8000c14:	7841      	ldrb	r1, [r0, #1]
 8000c16:	68db      	ldr	r3, [r3, #12]
 8000c18:	7884      	ldrb	r4, [r0, #2]
 8000c1a:	43db      	mvns	r3, r3
 8000c1c:	f3c3 2302 	ubfx	r3, r3, #8, #3
 8000c20:	f1c3 0204 	rsb	r2, r3, #4
 8000c24:	4091      	lsls	r1, r2
 8000c26:	220f      	movs	r2, #15
 8000c28:	40da      	lsrs	r2, r3
 8000c2a:	7803      	ldrb	r3, [r0, #0]
 8000c2c:	4022      	ands	r2, r4
 8000c2e:	430a      	orrs	r2, r1
 8000c30:	0112      	lsls	r2, r2, #4
 8000c32:	f103 4360 	add.w	r3, r3, #3758096384	; 0xe0000000
 8000c36:	b2d2      	uxtb	r2, r2
 8000c38:	f503 4361 	add.w	r3, r3, #57600	; 0xe100
 8000c3c:	f883 2300 	strb.w	r2, [r3, #768]	; 0x300
 8000c40:	7803      	ldrb	r3, [r0, #0]
 8000c42:	2201      	movs	r2, #1
 8000c44:	0959      	lsrs	r1, r3, #5
 8000c46:	f003 031f 	and.w	r3, r3, #31
 8000c4a:	fa02 f303 	lsl.w	r3, r2, r3
 8000c4e:	e007      	b.n	8000c60 <NVIC_Init+0x54>
 8000c50:	7803      	ldrb	r3, [r0, #0]
 8000c52:	2201      	movs	r2, #1
 8000c54:	0959      	lsrs	r1, r3, #5
 8000c56:	f003 031f 	and.w	r3, r3, #31
 8000c5a:	fa02 f303 	lsl.w	r3, r2, r3
 8000c5e:	3120      	adds	r1, #32
 8000c60:	4a02      	ldr	r2, [pc, #8]	; (8000c6c <NVIC_Init+0x60>)
 8000c62:	f842 3021 	str.w	r3, [r2, r1, lsl #2]
 8000c66:	bd10      	pop	{r4, pc}
 8000c68:	e000ed00 	.word	0xe000ed00
 8000c6c:	e000e100 	.word	0xe000e100

08000c70 <NVIC_SetVectorTable>:
 8000c70:	f021 4160 	bic.w	r1, r1, #3758096384	; 0xe0000000
 8000c74:	f021 017f 	bic.w	r1, r1, #127	; 0x7f
 8000c78:	4b01      	ldr	r3, [pc, #4]	; (8000c80 <NVIC_SetVectorTable+0x10>)
 8000c7a:	4308      	orrs	r0, r1
 8000c7c:	6098      	str	r0, [r3, #8]
 8000c7e:	4770      	bx	lr
 8000c80:	e000ed00 	.word	0xe000ed00

08000c84 <NVIC_SystemLPConfig>:
 8000c84:	4b04      	ldr	r3, [pc, #16]	; (8000c98 <NVIC_SystemLPConfig+0x14>)
 8000c86:	691a      	ldr	r2, [r3, #16]
 8000c88:	b109      	cbz	r1, 8000c8e <NVIC_SystemLPConfig+0xa>
 8000c8a:	4310      	orrs	r0, r2
 8000c8c:	e001      	b.n	8000c92 <NVIC_SystemLPConfig+0xe>
 8000c8e:	ea22 0000 	bic.w	r0, r2, r0
 8000c92:	6118      	str	r0, [r3, #16]
 8000c94:	4770      	bx	lr
 8000c96:	bf00      	nop
 8000c98:	e000ed00 	.word	0xe000ed00

08000c9c <SysTick_CLKSourceConfig>:
 8000c9c:	4b04      	ldr	r3, [pc, #16]	; (8000cb0 <SysTick_CLKSourceConfig+0x14>)
 8000c9e:	2804      	cmp	r0, #4
 8000ca0:	681a      	ldr	r2, [r3, #0]
 8000ca2:	bf0c      	ite	eq
 8000ca4:	f042 0204 	orreq.w	r2, r2, #4
 8000ca8:	f022 0204 	bicne.w	r2, r2, #4
 8000cac:	601a      	str	r2, [r3, #0]
 8000cae:	4770      	bx	lr
 8000cb0:	e000e010 	.word	0xe000e010

08000cb4 <ADC_DeInit>:
 8000cb4:	b508      	push	{r3, lr}
 8000cb6:	4b13      	ldr	r3, [pc, #76]	; (8000d04 <ADC_DeInit+0x50>)
 8000cb8:	4298      	cmp	r0, r3
 8000cba:	d107      	bne.n	8000ccc <ADC_DeInit+0x18>
 8000cbc:	f44f 7000 	mov.w	r0, #512	; 0x200
 8000cc0:	2101      	movs	r1, #1
 8000cc2:	f002 fc39 	bl	8003538 <RCC_APB2PeriphResetCmd>
 8000cc6:	f44f 7000 	mov.w	r0, #512	; 0x200
 8000cca:	e014      	b.n	8000cf6 <ADC_DeInit+0x42>
 8000ccc:	4b0e      	ldr	r3, [pc, #56]	; (8000d08 <ADC_DeInit+0x54>)
 8000cce:	4298      	cmp	r0, r3
 8000cd0:	d107      	bne.n	8000ce2 <ADC_DeInit+0x2e>
 8000cd2:	f44f 6080 	mov.w	r0, #1024	; 0x400
 8000cd6:	2101      	movs	r1, #1
 8000cd8:	f002 fc2e 	bl	8003538 <RCC_APB2PeriphResetCmd>
 8000cdc:	f44f 6080 	mov.w	r0, #1024	; 0x400
 8000ce0:	e009      	b.n	8000cf6 <ADC_DeInit+0x42>
 8000ce2:	4b0a      	ldr	r3, [pc, #40]	; (8000d0c <ADC_DeInit+0x58>)
 8000ce4:	4298      	cmp	r0, r3
 8000ce6:	d10b      	bne.n	8000d00 <ADC_DeInit+0x4c>
 8000ce8:	f44f 4000 	mov.w	r0, #32768	; 0x8000
 8000cec:	2101      	movs	r1, #1
 8000cee:	f002 fc23 	bl	8003538 <RCC_APB2PeriphResetCmd>
 8000cf2:	f44f 4000 	mov.w	r0, #32768	; 0x8000
 8000cf6:	2100      	movs	r1, #0
 8000cf8:	e8bd 4008 	ldmia.w	sp!, {r3, lr}
 8000cfc:	f002 bc1c 	b.w	8003538 <RCC_APB2PeriphResetCmd>
 8000d00:	bd08      	pop	{r3, pc}
 8000d02:	bf00      	nop
 8000d04:	40012400 	.word	0x40012400
 8000d08:	40012800 	.word	0x40012800
 8000d0c:	40013c00 	.word	0x40013c00

08000d10 <ADC_Init>:
 8000d10:	6842      	ldr	r2, [r0, #4]
 8000d12:	680b      	ldr	r3, [r1, #0]
 8000d14:	f422 2270 	bic.w	r2, r2, #983040	; 0xf0000
 8000d18:	f422 7280 	bic.w	r2, r2, #256	; 0x100
 8000d1c:	4313      	orrs	r3, r2
 8000d1e:	790a      	ldrb	r2, [r1, #4]
 8000d20:	b510      	push	{r4, lr}
 8000d22:	ea43 2302 	orr.w	r3, r3, r2, lsl #8
 8000d26:	6043      	str	r3, [r0, #4]
 8000d28:	688a      	ldr	r2, [r1, #8]
 8000d2a:	68cb      	ldr	r3, [r1, #12]
 8000d2c:	6884      	ldr	r4, [r0, #8]
 8000d2e:	431a      	orrs	r2, r3
 8000d30:	4b08      	ldr	r3, [pc, #32]	; (8000d54 <ADC_Init+0x44>)
 8000d32:	4023      	ands	r3, r4
 8000d34:	4313      	orrs	r3, r2
 8000d36:	794a      	ldrb	r2, [r1, #5]
 8000d38:	ea43 0342 	orr.w	r3, r3, r2, lsl #1
 8000d3c:	6083      	str	r3, [r0, #8]
 8000d3e:	7c0b      	ldrb	r3, [r1, #16]
 8000d40:	6ac2      	ldr	r2, [r0, #44]	; 0x2c
 8000d42:	3b01      	subs	r3, #1
 8000d44:	f422 0270 	bic.w	r2, r2, #15728640	; 0xf00000
 8000d48:	b2db      	uxtb	r3, r3
 8000d4a:	ea42 5303 	orr.w	r3, r2, r3, lsl #20
 8000d4e:	62c3      	str	r3, [r0, #44]	; 0x2c
 8000d50:	bd10      	pop	{r4, pc}
 8000d52:	bf00      	nop
 8000d54:	fff1f7fd 	.word	0xfff1f7fd

08000d58 <ADC_StructInit>:
 8000d58:	2300      	movs	r3, #0
 8000d5a:	6003      	str	r3, [r0, #0]
 8000d5c:	7103      	strb	r3, [r0, #4]
 8000d5e:	7143      	strb	r3, [r0, #5]
 8000d60:	6083      	str	r3, [r0, #8]
 8000d62:	60c3      	str	r3, [r0, #12]
 8000d64:	2301      	movs	r3, #1
 8000d66:	7403      	strb	r3, [r0, #16]
 8000d68:	4770      	bx	lr

08000d6a <ADC_Cmd>:
 8000d6a:	6883      	ldr	r3, [r0, #8]
 8000d6c:	b111      	cbz	r1, 8000d74 <ADC_Cmd+0xa>
 8000d6e:	f043 0301 	orr.w	r3, r3, #1
 8000d72:	e001      	b.n	8000d78 <ADC_Cmd+0xe>
 8000d74:	f023 0301 	bic.w	r3, r3, #1
 8000d78:	6083      	str	r3, [r0, #8]
 8000d7a:	4770      	bx	lr

08000d7c <ADC_DMACmd>:
 8000d7c:	6883      	ldr	r3, [r0, #8]
 8000d7e:	b111      	cbz	r1, 8000d86 <ADC_DMACmd+0xa>
 8000d80:	f443 7380 	orr.w	r3, r3, #256	; 0x100
 8000d84:	e001      	b.n	8000d8a <ADC_DMACmd+0xe>
 8000d86:	f423 7380 	bic.w	r3, r3, #256	; 0x100
 8000d8a:	6083      	str	r3, [r0, #8]
 8000d8c:	4770      	bx	lr

08000d8e <ADC_ITConfig>:
 8000d8e:	b2c9      	uxtb	r1, r1
 8000d90:	6843      	ldr	r3, [r0, #4]
 8000d92:	b10a      	cbz	r2, 8000d98 <ADC_ITConfig+0xa>
 8000d94:	4319      	orrs	r1, r3
 8000d96:	e001      	b.n	8000d9c <ADC_ITConfig+0xe>
 8000d98:	ea23 0101 	bic.w	r1, r3, r1
 8000d9c:	6041      	str	r1, [r0, #4]
 8000d9e:	4770      	bx	lr

08000da0 <ADC_ResetCalibration>:
 8000da0:	6883      	ldr	r3, [r0, #8]
 8000da2:	f043 0308 	orr.w	r3, r3, #8
 8000da6:	6083      	str	r3, [r0, #8]
 8000da8:	4770      	bx	lr

08000daa <ADC_GetResetCalibrationStatus>:
 8000daa:	6880      	ldr	r0, [r0, #8]
 8000dac:	f3c0 00c0 	ubfx	r0, r0, #3, #1
 8000db0:	4770      	bx	lr

08000db2 <ADC_StartCalibration>:
 8000db2:	6883      	ldr	r3, [r0, #8]
 8000db4:	f043 0304 	orr.w	r3, r3, #4
 8000db8:	6083      	str	r3, [r0, #8]
 8000dba:	4770      	bx	lr

08000dbc <ADC_GetCalibrationStatus>:
 8000dbc:	6880      	ldr	r0, [r0, #8]
 8000dbe:	f3c0 0080 	ubfx	r0, r0, #2, #1
 8000dc2:	4770      	bx	lr

08000dc4 <ADC_SoftwareStartConvCmd>:
 8000dc4:	6883      	ldr	r3, [r0, #8]
 8000dc6:	b111      	cbz	r1, 8000dce <ADC_SoftwareStartConvCmd+0xa>
 8000dc8:	f443 03a0 	orr.w	r3, r3, #5242880	; 0x500000
 8000dcc:	e001      	b.n	8000dd2 <ADC_SoftwareStartConvCmd+0xe>
 8000dce:	f423 03a0 	bic.w	r3, r3, #5242880	; 0x500000
 8000dd2:	6083      	str	r3, [r0, #8]
 8000dd4:	4770      	bx	lr

08000dd6 <ADC_GetSoftwareStartConvStatus>:
 8000dd6:	6880      	ldr	r0, [r0, #8]
 8000dd8:	f3c0 5080 	ubfx	r0, r0, #22, #1
 8000ddc:	4770      	bx	lr

08000dde <ADC_DiscModeChannelCountConfig>:
 8000dde:	6843      	ldr	r3, [r0, #4]
 8000de0:	3901      	subs	r1, #1
 8000de2:	f423 4360 	bic.w	r3, r3, #57344	; 0xe000
 8000de6:	ea43 3341 	orr.w	r3, r3, r1, lsl #13
 8000dea:	6043      	str	r3, [r0, #4]
 8000dec:	4770      	bx	lr

08000dee <ADC_DiscModeCmd>:
 8000dee:	6843      	ldr	r3, [r0, #4]
 8000df0:	b111      	cbz	r1, 8000df8 <ADC_DiscModeCmd+0xa>
 8000df2:	f443 6300 	orr.w	r3, r3, #2048	; 0x800
 8000df6:	e001      	b.n	8000dfc <ADC_DiscModeCmd+0xe>
 8000df8:	f423 6300 	bic.w	r3, r3, #2048	; 0x800
 8000dfc:	6043      	str	r3, [r0, #4]
 8000dfe:	4770      	bx	lr

08000e00 <ADC_RegularChannelConfig>:
 8000e00:	2909      	cmp	r1, #9
 8000e02:	b570      	push	{r4, r5, r6, lr}
 8000e04:	f04f 0403 	mov.w	r4, #3
 8000e08:	d90b      	bls.n	8000e22 <ADC_RegularChannelConfig+0x22>
 8000e0a:	434c      	muls	r4, r1
 8000e0c:	2507      	movs	r5, #7
 8000e0e:	3c1e      	subs	r4, #30
 8000e10:	40a5      	lsls	r5, r4
 8000e12:	40a3      	lsls	r3, r4
 8000e14:	68c6      	ldr	r6, [r0, #12]
 8000e16:	ea26 0505 	bic.w	r5, r6, r5
 8000e1a:	ea45 0403 	orr.w	r4, r5, r3
 8000e1e:	60c4      	str	r4, [r0, #12]
 8000e20:	e00a      	b.n	8000e38 <ADC_RegularChannelConfig+0x38>
 8000e22:	434c      	muls	r4, r1
 8000e24:	2507      	movs	r5, #7
 8000e26:	40a5      	lsls	r5, r4
 8000e28:	fa03 f404 	lsl.w	r4, r3, r4
 8000e2c:	6906      	ldr	r6, [r0, #16]
 8000e2e:	ea26 0505 	bic.w	r5, r6, r5
 8000e32:	ea45 0304 	orr.w	r3, r5, r4
 8000e36:	6103      	str	r3, [r0, #16]
 8000e38:	2a06      	cmp	r2, #6
 8000e3a:	f04f 0305 	mov.w	r3, #5
 8000e3e:	d80b      	bhi.n	8000e58 <ADC_RegularChannelConfig+0x58>
 8000e40:	3a01      	subs	r2, #1
 8000e42:	4353      	muls	r3, r2
 8000e44:	221f      	movs	r2, #31
 8000e46:	409a      	lsls	r2, r3
 8000e48:	fa01 f303 	lsl.w	r3, r1, r3
 8000e4c:	6b44      	ldr	r4, [r0, #52]	; 0x34
 8000e4e:	ea24 0202 	bic.w	r2, r4, r2
 8000e52:	4313      	orrs	r3, r2
 8000e54:	6343      	str	r3, [r0, #52]	; 0x34
 8000e56:	bd70      	pop	{r4, r5, r6, pc}
 8000e58:	2a0c      	cmp	r2, #12
 8000e5a:	d80b      	bhi.n	8000e74 <ADC_RegularChannelConfig+0x74>
 8000e5c:	4353      	muls	r3, r2
 8000e5e:	221f      	movs	r2, #31
 8000e60:	3b23      	subs	r3, #35	; 0x23
 8000e62:	409a      	lsls	r2, r3
 8000e64:	4099      	lsls	r1, r3
 8000e66:	6b04      	ldr	r4, [r0, #48]	; 0x30
 8000e68:	ea24 0202 	bic.w	r2, r4, r2
 8000e6c:	ea42 0301 	orr.w	r3, r2, r1
 8000e70:	6303      	str	r3, [r0, #48]	; 0x30
 8000e72:	bd70      	pop	{r4, r5, r6, pc}
 8000e74:	4353      	muls	r3, r2
 8000e76:	221f      	movs	r2, #31
 8000e78:	3b41      	subs	r3, #65	; 0x41
 8000e7a:	409a      	lsls	r2, r3
 8000e7c:	4099      	lsls	r1, r3
 8000e7e:	6ac4      	ldr	r4, [r0, #44]	; 0x2c
 8000e80:	ea24 0202 	bic.w	r2, r4, r2
 8000e84:	ea42 0301 	orr.w	r3, r2, r1
 8000e88:	62c3      	str	r3, [r0, #44]	; 0x2c
 8000e8a:	bd70      	pop	{r4, r5, r6, pc}

08000e8c <ADC_ExternalTrigConvCmd>:
 8000e8c:	6883      	ldr	r3, [r0, #8]
 8000e8e:	b111      	cbz	r1, 8000e96 <ADC_ExternalTrigConvCmd+0xa>
 8000e90:	f443 1380 	orr.w	r3, r3, #1048576	; 0x100000
 8000e94:	e001      	b.n	8000e9a <ADC_ExternalTrigConvCmd+0xe>
 8000e96:	f423 1380 	bic.w	r3, r3, #1048576	; 0x100000
 8000e9a:	6083      	str	r3, [r0, #8]
 8000e9c:	4770      	bx	lr

08000e9e <ADC_GetConversionValue>:
 8000e9e:	6cc0      	ldr	r0, [r0, #76]	; 0x4c
 8000ea0:	b280      	uxth	r0, r0
 8000ea2:	4770      	bx	lr

08000ea4 <ADC_GetDualModeConversionValue>:
 8000ea4:	4b01      	ldr	r3, [pc, #4]	; (8000eac <ADC_GetDualModeConversionValue+0x8>)
 8000ea6:	6818      	ldr	r0, [r3, #0]
 8000ea8:	4770      	bx	lr
 8000eaa:	bf00      	nop
 8000eac:	4001244c 	.word	0x4001244c

08000eb0 <ADC_AutoInjectedConvCmd>:
 8000eb0:	6843      	ldr	r3, [r0, #4]
 8000eb2:	b111      	cbz	r1, 8000eba <ADC_AutoInjectedConvCmd+0xa>
 8000eb4:	f443 6380 	orr.w	r3, r3, #1024	; 0x400
 8000eb8:	e001      	b.n	8000ebe <ADC_AutoInjectedConvCmd+0xe>
 8000eba:	f423 6380 	bic.w	r3, r3, #1024	; 0x400
 8000ebe:	6043      	str	r3, [r0, #4]
 8000ec0:	4770      	bx	lr

08000ec2 <ADC_InjectedDiscModeCmd>:
 8000ec2:	6843      	ldr	r3, [r0, #4]
 8000ec4:	b111      	cbz	r1, 8000ecc <ADC_InjectedDiscModeCmd+0xa>
 8000ec6:	f443 5380 	orr.w	r3, r3, #4096	; 0x1000
 8000eca:	e001      	b.n	8000ed0 <ADC_InjectedDiscModeCmd+0xe>
 8000ecc:	f423 5380 	bic.w	r3, r3, #4096	; 0x1000
 8000ed0:	6043      	str	r3, [r0, #4]
 8000ed2:	4770      	bx	lr

08000ed4 <ADC_ExternalTrigInjectedConvConfig>:
 8000ed4:	6883      	ldr	r3, [r0, #8]
 8000ed6:	f423 43e0 	bic.w	r3, r3, #28672	; 0x7000
 8000eda:	4319      	orrs	r1, r3
 8000edc:	6081      	str	r1, [r0, #8]
 8000ede:	4770      	bx	lr

08000ee0 <ADC_ExternalTrigInjectedConvCmd>:
 8000ee0:	6883      	ldr	r3, [r0, #8]
 8000ee2:	b111      	cbz	r1, 8000eea <ADC_ExternalTrigInjectedConvCmd+0xa>
 8000ee4:	f443 4300 	orr.w	r3, r3, #32768	; 0x8000
 8000ee8:	e001      	b.n	8000eee <ADC_ExternalTrigInjectedConvCmd+0xe>
 8000eea:	f423 4300 	bic.w	r3, r3, #32768	; 0x8000
 8000eee:	6083      	str	r3, [r0, #8]
 8000ef0:	4770      	bx	lr

08000ef2 <ADC_SoftwareStartInjectedConvCmd>:
 8000ef2:	6883      	ldr	r3, [r0, #8]
 8000ef4:	b111      	cbz	r1, 8000efc <ADC_SoftwareStartInjectedConvCmd+0xa>
 8000ef6:	f443 1302 	orr.w	r3, r3, #2129920	; 0x208000
 8000efa:	e001      	b.n	8000f00 <ADC_SoftwareStartInjectedConvCmd+0xe>
 8000efc:	f423 1302 	bic.w	r3, r3, #2129920	; 0x208000
 8000f00:	6083      	str	r3, [r0, #8]
 8000f02:	4770      	bx	lr

08000f04 <ADC_GetSoftwareStartInjectedConvCmdStatus>:
 8000f04:	6880      	ldr	r0, [r0, #8]
 8000f06:	f3c0 5040 	ubfx	r0, r0, #21, #1
 8000f0a:	4770      	bx	lr

08000f0c <ADC_InjectedChannelConfig>:
 8000f0c:	2909      	cmp	r1, #9
 8000f0e:	b570      	push	{r4, r5, r6, lr}
 8000f10:	f04f 0403 	mov.w	r4, #3
 8000f14:	d90b      	bls.n	8000f2e <ADC_InjectedChannelConfig+0x22>
 8000f16:	434c      	muls	r4, r1
 8000f18:	2507      	movs	r5, #7
 8000f1a:	3c1e      	subs	r4, #30
 8000f1c:	40a5      	lsls	r5, r4
 8000f1e:	40a3      	lsls	r3, r4
 8000f20:	68c6      	ldr	r6, [r0, #12]
 8000f22:	ea26 0505 	bic.w	r5, r6, r5
 8000f26:	ea45 0403 	orr.w	r4, r5, r3
 8000f2a:	60c4      	str	r4, [r0, #12]
 8000f2c:	e00a      	b.n	8000f44 <ADC_InjectedChannelConfig+0x38>
 8000f2e:	434c      	muls	r4, r1
 8000f30:	2507      	movs	r5, #7
 8000f32:	40a5      	lsls	r5, r4
 8000f34:	fa03 f404 	lsl.w	r4, r3, r4
 8000f38:	6906      	ldr	r6, [r0, #16]
 8000f3a:	ea26 0505 	bic.w	r5, r6, r5
 8000f3e:	ea45 0304 	orr.w	r3, r5, r4
 8000f42:	6103      	str	r3, [r0, #16]
 8000f44:	6b84      	ldr	r4, [r0, #56]	; 0x38
 8000f46:	f3c4 5301 	ubfx	r3, r4, #20, #2
 8000f4a:	1ad3      	subs	r3, r2, r3
 8000f4c:	3302      	adds	r3, #2
 8000f4e:	2205      	movs	r2, #5
 8000f50:	b2db      	uxtb	r3, r3
 8000f52:	4353      	muls	r3, r2
 8000f54:	221f      	movs	r2, #31
 8000f56:	409a      	lsls	r2, r3
 8000f58:	4099      	lsls	r1, r3
 8000f5a:	ea24 0402 	bic.w	r4, r4, r2
 8000f5e:	ea44 0301 	orr.w	r3, r4, r1
 8000f62:	6383      	str	r3, [r0, #56]	; 0x38
 8000f64:	bd70      	pop	{r4, r5, r6, pc}

08000f66 <ADC_InjectedSequencerLengthConfig>:
 8000f66:	6b83      	ldr	r3, [r0, #56]	; 0x38
 8000f68:	3901      	subs	r1, #1
 8000f6a:	f423 1340 	bic.w	r3, r3, #3145728	; 0x300000
 8000f6e:	ea43 5301 	orr.w	r3, r3, r1, lsl #20
 8000f72:	6383      	str	r3, [r0, #56]	; 0x38
 8000f74:	4770      	bx	lr

08000f76 <ADC_SetInjectedOffset>:
 8000f76:	b082      	sub	sp, #8
 8000f78:	2300      	movs	r3, #0
 8000f7a:	9301      	str	r3, [sp, #4]
 8000f7c:	9001      	str	r0, [sp, #4]
 8000f7e:	9b01      	ldr	r3, [sp, #4]
 8000f80:	18c9      	adds	r1, r1, r3
 8000f82:	9101      	str	r1, [sp, #4]
 8000f84:	9b01      	ldr	r3, [sp, #4]
 8000f86:	601a      	str	r2, [r3, #0]
 8000f88:	b002      	add	sp, #8
 8000f8a:	4770      	bx	lr

08000f8c <ADC_GetInjectedConversionValue>:
 8000f8c:	b082      	sub	sp, #8
 8000f8e:	2300      	movs	r3, #0
 8000f90:	9301      	str	r3, [sp, #4]
 8000f92:	9001      	str	r0, [sp, #4]
 8000f94:	9b01      	ldr	r3, [sp, #4]
 8000f96:	3328      	adds	r3, #40	; 0x28
 8000f98:	1859      	adds	r1, r3, r1
 8000f9a:	9101      	str	r1, [sp, #4]
 8000f9c:	9b01      	ldr	r3, [sp, #4]
 8000f9e:	6818      	ldr	r0, [r3, #0]
 8000fa0:	b280      	uxth	r0, r0
 8000fa2:	b002      	add	sp, #8
 8000fa4:	4770      	bx	lr

08000fa6 <ADC_AnalogWatchdogCmd>:
 8000fa6:	6843      	ldr	r3, [r0, #4]
 8000fa8:	f423 0340 	bic.w	r3, r3, #12582912	; 0xc00000
 8000fac:	f423 7300 	bic.w	r3, r3, #512	; 0x200
 8000fb0:	4319      	orrs	r1, r3
 8000fb2:	6041      	str	r1, [r0, #4]
 8000fb4:	4770      	bx	lr

08000fb6 <ADC_AnalogWatchdogThresholdsConfig>:
 8000fb6:	6241      	str	r1, [r0, #36]	; 0x24
 8000fb8:	6282      	str	r2, [r0, #40]	; 0x28
 8000fba:	4770      	bx	lr

08000fbc <ADC_AnalogWatchdogSingleChannelConfig>:
 8000fbc:	6843      	ldr	r3, [r0, #4]
 8000fbe:	f023 031f 	bic.w	r3, r3, #31
 8000fc2:	4319      	orrs	r1, r3
 8000fc4:	6041      	str	r1, [r0, #4]
 8000fc6:	4770      	bx	lr

08000fc8 <ADC_TempSensorVrefintCmd>:
 8000fc8:	4b04      	ldr	r3, [pc, #16]	; (8000fdc <ADC_TempSensorVrefintCmd+0x14>)
 8000fca:	689a      	ldr	r2, [r3, #8]
 8000fcc:	b110      	cbz	r0, 8000fd4 <ADC_TempSensorVrefintCmd+0xc>
 8000fce:	f442 0200 	orr.w	r2, r2, #8388608	; 0x800000
 8000fd2:	e001      	b.n	8000fd8 <ADC_TempSensorVrefintCmd+0x10>
 8000fd4:	f422 0200 	bic.w	r2, r2, #8388608	; 0x800000
 8000fd8:	609a      	str	r2, [r3, #8]
 8000fda:	4770      	bx	lr
 8000fdc:	40012400 	.word	0x40012400

08000fe0 <ADC_GetFlagStatus>:
 8000fe0:	6803      	ldr	r3, [r0, #0]
 8000fe2:	4219      	tst	r1, r3
 8000fe4:	bf0c      	ite	eq
 8000fe6:	2000      	moveq	r0, #0
 8000fe8:	2001      	movne	r0, #1
 8000fea:	4770      	bx	lr

08000fec <ADC_ClearFlag>:
 8000fec:	43c9      	mvns	r1, r1
 8000fee:	6001      	str	r1, [r0, #0]
 8000ff0:	4770      	bx	lr

08000ff2 <ADC_GetITStatus>:
 8000ff2:	6843      	ldr	r3, [r0, #4]
 8000ff4:	6800      	ldr	r0, [r0, #0]
 8000ff6:	ea10 2011 	ands.w	r0, r0, r1, lsr #8
 8000ffa:	d004      	beq.n	8001006 <ADC_GetITStatus+0x14>
 8000ffc:	b2c9      	uxtb	r1, r1
 8000ffe:	4219      	tst	r1, r3
 8001000:	bf0c      	ite	eq
 8001002:	2000      	moveq	r0, #0
 8001004:	2001      	movne	r0, #1
 8001006:	4770      	bx	lr

08001008 <ADC_ClearITPendingBit>:
 8001008:	ea6f 2111 	mvn.w	r1, r1, lsr #8
 800100c:	6001      	str	r1, [r0, #0]
 800100e:	4770      	bx	lr

08001010 <BKP_DeInit>:
 8001010:	b508      	push	{r3, lr}
 8001012:	2001      	movs	r0, #1
 8001014:	f002 faa8 	bl	8003568 <RCC_BackupResetCmd>
 8001018:	2000      	movs	r0, #0
 800101a:	e8bd 4008 	ldmia.w	sp!, {r3, lr}
 800101e:	f002 baa3 	b.w	8003568 <RCC_BackupResetCmd>

08001022 <BKP_TamperPinLevelConfig>:
 8001022:	4b01      	ldr	r3, [pc, #4]	; (8001028 <BKP_TamperPinLevelConfig+0x6>)
 8001024:	6018      	str	r0, [r3, #0]
 8001026:	4770      	bx	lr
 8001028:	420d8604 	.word	0x420d8604

0800102c <BKP_TamperPinCmd>:
 800102c:	4b01      	ldr	r3, [pc, #4]	; (8001034 <BKP_TamperPinCmd+0x8>)
 800102e:	6018      	str	r0, [r3, #0]
 8001030:	4770      	bx	lr
 8001032:	bf00      	nop
 8001034:	420d8600 	.word	0x420d8600

08001038 <BKP_ITConfig>:
 8001038:	4b01      	ldr	r3, [pc, #4]	; (8001040 <BKP_ITConfig+0x8>)
 800103a:	6018      	str	r0, [r3, #0]
 800103c:	4770      	bx	lr
 800103e:	bf00      	nop
 8001040:	420d8688 	.word	0x420d8688

08001044 <BKP_RTCOutputConfig>:
 8001044:	4a04      	ldr	r2, [pc, #16]	; (8001058 <BKP_RTCOutputConfig+0x14>)
 8001046:	8d93      	ldrh	r3, [r2, #44]	; 0x2c
 8001048:	f423 7360 	bic.w	r3, r3, #896	; 0x380
 800104c:	041b      	lsls	r3, r3, #16
 800104e:	0c1b      	lsrs	r3, r3, #16
 8001050:	4318      	orrs	r0, r3
 8001052:	8590      	strh	r0, [r2, #44]	; 0x2c
 8001054:	4770      	bx	lr
 8001056:	bf00      	nop
 8001058:	40006c00 	.word	0x40006c00

0800105c <BKP_SetRTCCalibrationValue>:
 800105c:	4a04      	ldr	r2, [pc, #16]	; (8001070 <BKP_SetRTCCalibrationValue+0x14>)
 800105e:	8d93      	ldrh	r3, [r2, #44]	; 0x2c
 8001060:	f023 037f 	bic.w	r3, r3, #127	; 0x7f
 8001064:	041b      	lsls	r3, r3, #16
 8001066:	0c1b      	lsrs	r3, r3, #16
 8001068:	4318      	orrs	r0, r3
 800106a:	8590      	strh	r0, [r2, #44]	; 0x2c
 800106c:	4770      	bx	lr
 800106e:	bf00      	nop
 8001070:	40006c00 	.word	0x40006c00

08001074 <BKP_WriteBackupRegister>:
 8001074:	b082      	sub	sp, #8
 8001076:	2300      	movs	r3, #0
 8001078:	9301      	str	r3, [sp, #4]
 800107a:	4b04      	ldr	r3, [pc, #16]	; (800108c <BKP_WriteBackupRegister+0x18>)
 800107c:	9301      	str	r3, [sp, #4]
 800107e:	9b01      	ldr	r3, [sp, #4]
 8001080:	18c0      	adds	r0, r0, r3
 8001082:	9001      	str	r0, [sp, #4]
 8001084:	9b01      	ldr	r3, [sp, #4]
 8001086:	6019      	str	r1, [r3, #0]
 8001088:	b002      	add	sp, #8
 800108a:	4770      	bx	lr
 800108c:	40006c00 	.word	0x40006c00

08001090 <BKP_ReadBackupRegister>:
 8001090:	b082      	sub	sp, #8
 8001092:	2300      	movs	r3, #0
 8001094:	9301      	str	r3, [sp, #4]
 8001096:	4b05      	ldr	r3, [pc, #20]	; (80010ac <BKP_ReadBackupRegister+0x1c>)
 8001098:	9301      	str	r3, [sp, #4]
 800109a:	9b01      	ldr	r3, [sp, #4]
 800109c:	18c0      	adds	r0, r0, r3
 800109e:	9001      	str	r0, [sp, #4]
 80010a0:	9b01      	ldr	r3, [sp, #4]
 80010a2:	8818      	ldrh	r0, [r3, #0]
 80010a4:	b280      	uxth	r0, r0
 80010a6:	b002      	add	sp, #8
 80010a8:	4770      	bx	lr
 80010aa:	bf00      	nop
 80010ac:	40006c00 	.word	0x40006c00

080010b0 <BKP_GetFlagStatus>:
 80010b0:	4b01      	ldr	r3, [pc, #4]	; (80010b8 <BKP_GetFlagStatus+0x8>)
 80010b2:	6818      	ldr	r0, [r3, #0]
 80010b4:	b2c0      	uxtb	r0, r0
 80010b6:	4770      	bx	lr
 80010b8:	420d86a0 	.word	0x420d86a0

080010bc <BKP_ClearFlag>:
 80010bc:	4b03      	ldr	r3, [pc, #12]	; (80010cc <BKP_ClearFlag+0x10>)
 80010be:	8e9a      	ldrh	r2, [r3, #52]	; 0x34
 80010c0:	b292      	uxth	r2, r2
 80010c2:	f042 0201 	orr.w	r2, r2, #1
 80010c6:	869a      	strh	r2, [r3, #52]	; 0x34
 80010c8:	4770      	bx	lr
 80010ca:	bf00      	nop
 80010cc:	40006c00 	.word	0x40006c00

080010d0 <BKP_GetITStatus>:
 80010d0:	4b01      	ldr	r3, [pc, #4]	; (80010d8 <BKP_GetITStatus+0x8>)
 80010d2:	6818      	ldr	r0, [r3, #0]
 80010d4:	b2c0      	uxtb	r0, r0
 80010d6:	4770      	bx	lr
 80010d8:	420d86a4 	.word	0x420d86a4

080010dc <BKP_ClearITPendingBit>:
 80010dc:	4b03      	ldr	r3, [pc, #12]	; (80010ec <BKP_ClearITPendingBit+0x10>)
 80010de:	8e9a      	ldrh	r2, [r3, #52]	; 0x34
 80010e0:	b292      	uxth	r2, r2
 80010e2:	f042 0202 	orr.w	r2, r2, #2
 80010e6:	869a      	strh	r2, [r3, #52]	; 0x34
 80010e8:	4770      	bx	lr
 80010ea:	bf00      	nop
 80010ec:	40006c00 	.word	0x40006c00

080010f0 <CAN_DeInit>:
 80010f0:	b508      	push	{r3, lr}
 80010f2:	4b0b      	ldr	r3, [pc, #44]	; (8001120 <CAN_DeInit+0x30>)
 80010f4:	4298      	cmp	r0, r3
 80010f6:	d107      	bne.n	8001108 <CAN_DeInit+0x18>
 80010f8:	f04f 7000 	mov.w	r0, #33554432	; 0x2000000
 80010fc:	2101      	movs	r1, #1
 80010fe:	f002 fa27 	bl	8003550 <RCC_APB1PeriphResetCmd>
 8001102:	f04f 7000 	mov.w	r0, #33554432	; 0x2000000
 8001106:	e006      	b.n	8001116 <CAN_DeInit+0x26>
 8001108:	f04f 6080 	mov.w	r0, #67108864	; 0x4000000
 800110c:	2101      	movs	r1, #1
 800110e:	f002 fa1f 	bl	8003550 <RCC_APB1PeriphResetCmd>
 8001112:	f04f 6080 	mov.w	r0, #67108864	; 0x4000000
 8001116:	2100      	movs	r1, #0
 8001118:	e8bd 4008 	ldmia.w	sp!, {r3, lr}
 800111c:	f002 ba18 	b.w	8003550 <RCC_APB1PeriphResetCmd>
 8001120:	40006400 	.word	0x40006400

08001124 <CAN_Init>:
 8001124:	6803      	ldr	r3, [r0, #0]
 8001126:	f023 0302 	bic.w	r3, r3, #2
 800112a:	6003      	str	r3, [r0, #0]
 800112c:	6803      	ldr	r3, [r0, #0]
 800112e:	f043 0301 	orr.w	r3, r3, #1
 8001132:	6003      	str	r3, [r0, #0]
 8001134:	f44f 3380 	mov.w	r3, #65536	; 0x10000
 8001138:	6842      	ldr	r2, [r0, #4]
 800113a:	07d2      	lsls	r2, r2, #31
 800113c:	d401      	bmi.n	8001142 <CAN_Init+0x1e>
 800113e:	3b01      	subs	r3, #1
 8001140:	d1fa      	bne.n	8001138 <CAN_Init+0x14>
 8001142:	6843      	ldr	r3, [r0, #4]
 8001144:	f013 0301 	ands.w	r3, r3, #1
 8001148:	d055      	beq.n	80011f6 <CAN_Init+0xd2>
 800114a:	798b      	ldrb	r3, [r1, #6]
 800114c:	2b01      	cmp	r3, #1
 800114e:	6803      	ldr	r3, [r0, #0]
 8001150:	bf0c      	ite	eq
 8001152:	f043 0380 	orreq.w	r3, r3, #128	; 0x80
 8001156:	f023 0380 	bicne.w	r3, r3, #128	; 0x80
 800115a:	6003      	str	r3, [r0, #0]
 800115c:	79cb      	ldrb	r3, [r1, #7]
 800115e:	2b01      	cmp	r3, #1
 8001160:	6803      	ldr	r3, [r0, #0]
 8001162:	bf0c      	ite	eq
 8001164:	f043 0340 	orreq.w	r3, r3, #64	; 0x40
 8001168:	f023 0340 	bicne.w	r3, r3, #64	; 0x40
 800116c:	6003      	str	r3, [r0, #0]
 800116e:	7a0b      	ldrb	r3, [r1, #8]
 8001170:	2b01      	cmp	r3, #1
 8001172:	6803      	ldr	r3, [r0, #0]
 8001174:	bf0c      	ite	eq
 8001176:	f043 0320 	orreq.w	r3, r3, #32
 800117a:	f023 0320 	bicne.w	r3, r3, #32
 800117e:	6003      	str	r3, [r0, #0]
 8001180:	7a4b      	ldrb	r3, [r1, #9]
 8001182:	2b01      	cmp	r3, #1
 8001184:	6803      	ldr	r3, [r0, #0]
 8001186:	bf0c      	ite	eq
 8001188:	f043 0310 	orreq.w	r3, r3, #16
 800118c:	f023 0310 	bicne.w	r3, r3, #16
 8001190:	6003      	str	r3, [r0, #0]
 8001192:	7a8b      	ldrb	r3, [r1, #10]
 8001194:	2b01      	cmp	r3, #1
 8001196:	6803      	ldr	r3, [r0, #0]
 8001198:	bf0c      	ite	eq
 800119a:	f043 0308 	orreq.w	r3, r3, #8
 800119e:	f023 0308 	bicne.w	r3, r3, #8
 80011a2:	6003      	str	r3, [r0, #0]
 80011a4:	7acb      	ldrb	r3, [r1, #11]
 80011a6:	2b01      	cmp	r3, #1
 80011a8:	6803      	ldr	r3, [r0, #0]
 80011aa:	bf0c      	ite	eq
 80011ac:	f043 0304 	orreq.w	r3, r3, #4
 80011b0:	f023 0304 	bicne.w	r3, r3, #4
 80011b4:	6003      	str	r3, [r0, #0]
 80011b6:	788b      	ldrb	r3, [r1, #2]
 80011b8:	78ca      	ldrb	r2, [r1, #3]
 80011ba:	079b      	lsls	r3, r3, #30
 80011bc:	ea43 6302 	orr.w	r3, r3, r2, lsl #24
 80011c0:	790a      	ldrb	r2, [r1, #4]
 80011c2:	ea43 4302 	orr.w	r3, r3, r2, lsl #16
 80011c6:	794a      	ldrb	r2, [r1, #5]
 80011c8:	ea43 5302 	orr.w	r3, r3, r2, lsl #20
 80011cc:	880a      	ldrh	r2, [r1, #0]
 80011ce:	3a01      	subs	r2, #1
 80011d0:	4313      	orrs	r3, r2
 80011d2:	61c3      	str	r3, [r0, #28]
 80011d4:	6803      	ldr	r3, [r0, #0]
 80011d6:	f023 0301 	bic.w	r3, r3, #1
 80011da:	6003      	str	r3, [r0, #0]
 80011dc:	f44f 3380 	mov.w	r3, #65536	; 0x10000
 80011e0:	6842      	ldr	r2, [r0, #4]
 80011e2:	07d2      	lsls	r2, r2, #31
 80011e4:	d501      	bpl.n	80011ea <CAN_Init+0xc6>
 80011e6:	3b01      	subs	r3, #1
 80011e8:	d1fa      	bne.n	80011e0 <CAN_Init+0xbc>
 80011ea:	6840      	ldr	r0, [r0, #4]
 80011ec:	f000 0001 	and.w	r0, r0, #1
 80011f0:	f080 0001 	eor.w	r0, r0, #1
 80011f4:	4770      	bx	lr
 80011f6:	4618      	mov	r0, r3
 80011f8:	4770      	bx	lr

080011fa <CAN_FilterInit>:
 80011fa:	7a83      	ldrb	r3, [r0, #10]
 80011fc:	2101      	movs	r1, #1
 80011fe:	4099      	lsls	r1, r3
 8001200:	4b35      	ldr	r3, [pc, #212]	; (80012d8 <CAN_FilterInit+0xde>)
 8001202:	b570      	push	{r4, r5, r6, lr}
 8001204:	f8d3 2200 	ldr.w	r2, [r3, #512]	; 0x200
 8001208:	43cc      	mvns	r4, r1
 800120a:	f042 0201 	orr.w	r2, r2, #1
 800120e:	f8c3 2200 	str.w	r2, [r3, #512]	; 0x200
 8001212:	f8d3 221c 	ldr.w	r2, [r3, #540]	; 0x21c
 8001216:	4022      	ands	r2, r4
 8001218:	f8c3 221c 	str.w	r2, [r3, #540]	; 0x21c
 800121c:	7b02      	ldrb	r2, [r0, #12]
 800121e:	b9aa      	cbnz	r2, 800124c <CAN_FilterInit+0x52>
 8001220:	f8d3 220c 	ldr.w	r2, [r3, #524]	; 0x20c
 8001224:	88c6      	ldrh	r6, [r0, #6]
 8001226:	4022      	ands	r2, r4
 8001228:	f8c3 220c 	str.w	r2, [r3, #524]	; 0x20c
 800122c:	7a82      	ldrb	r2, [r0, #10]
 800122e:	8845      	ldrh	r5, [r0, #2]
 8001230:	3248      	adds	r2, #72	; 0x48
 8001232:	ea45 4506 	orr.w	r5, r5, r6, lsl #16
 8001236:	f843 5032 	str.w	r5, [r3, r2, lsl #3]
 800123a:	8803      	ldrh	r3, [r0, #0]
 800123c:	8882      	ldrh	r2, [r0, #4]
 800123e:	7a85      	ldrb	r5, [r0, #10]
 8001240:	ea43 4202 	orr.w	r2, r3, r2, lsl #16
 8001244:	4b25      	ldr	r3, [pc, #148]	; (80012dc <CAN_FilterInit+0xe2>)
 8001246:	00ed      	lsls	r5, r5, #3
 8001248:	18eb      	adds	r3, r5, r3
 800124a:	605a      	str	r2, [r3, #4]
 800124c:	7b03      	ldrb	r3, [r0, #12]
 800124e:	2b01      	cmp	r3, #1
 8001250:	d116      	bne.n	8001280 <CAN_FilterInit+0x86>
 8001252:	4b21      	ldr	r3, [pc, #132]	; (80012d8 <CAN_FilterInit+0xde>)
 8001254:	8806      	ldrh	r6, [r0, #0]
 8001256:	f8d3 220c 	ldr.w	r2, [r3, #524]	; 0x20c
 800125a:	8845      	ldrh	r5, [r0, #2]
 800125c:	430a      	orrs	r2, r1
 800125e:	f8c3 220c 	str.w	r2, [r3, #524]	; 0x20c
 8001262:	7a82      	ldrb	r2, [r0, #10]
 8001264:	ea45 4506 	orr.w	r5, r5, r6, lsl #16
 8001268:	3248      	adds	r2, #72	; 0x48
 800126a:	f843 5032 	str.w	r5, [r3, r2, lsl #3]
 800126e:	88c3      	ldrh	r3, [r0, #6]
 8001270:	8882      	ldrh	r2, [r0, #4]
 8001272:	7a85      	ldrb	r5, [r0, #10]
 8001274:	ea43 4202 	orr.w	r2, r3, r2, lsl #16
 8001278:	4b18      	ldr	r3, [pc, #96]	; (80012dc <CAN_FilterInit+0xe2>)
 800127a:	00ed      	lsls	r5, r5, #3
 800127c:	18eb      	adds	r3, r5, r3
 800127e:	605a      	str	r2, [r3, #4]
 8001280:	7ac3      	ldrb	r3, [r0, #11]
 8001282:	4a15      	ldr	r2, [pc, #84]	; (80012d8 <CAN_FilterInit+0xde>)
 8001284:	b91b      	cbnz	r3, 800128e <CAN_FilterInit+0x94>
 8001286:	f8d2 3204 	ldr.w	r3, [r2, #516]	; 0x204
 800128a:	4023      	ands	r3, r4
 800128c:	e002      	b.n	8001294 <CAN_FilterInit+0x9a>
 800128e:	f8d2 3204 	ldr.w	r3, [r2, #516]	; 0x204
 8001292:	430b      	orrs	r3, r1
 8001294:	8905      	ldrh	r5, [r0, #8]
 8001296:	f8c2 3204 	str.w	r3, [r2, #516]	; 0x204
 800129a:	4b0f      	ldr	r3, [pc, #60]	; (80012d8 <CAN_FilterInit+0xde>)
 800129c:	b92d      	cbnz	r5, 80012aa <CAN_FilterInit+0xb0>
 800129e:	f8d2 5214 	ldr.w	r5, [r2, #532]	; 0x214
 80012a2:	402c      	ands	r4, r5
 80012a4:	f8c2 4214 	str.w	r4, [r2, #532]	; 0x214
 80012a8:	e006      	b.n	80012b8 <CAN_FilterInit+0xbe>
 80012aa:	2d01      	cmp	r5, #1
 80012ac:	d104      	bne.n	80012b8 <CAN_FilterInit+0xbe>
 80012ae:	f8d3 2214 	ldr.w	r2, [r3, #532]	; 0x214
 80012b2:	430a      	orrs	r2, r1
 80012b4:	f8c3 2214 	str.w	r2, [r3, #532]	; 0x214
 80012b8:	7b42      	ldrb	r2, [r0, #13]
 80012ba:	2a01      	cmp	r2, #1
 80012bc:	d104      	bne.n	80012c8 <CAN_FilterInit+0xce>
 80012be:	f8d3 221c 	ldr.w	r2, [r3, #540]	; 0x21c
 80012c2:	4311      	orrs	r1, r2
 80012c4:	f8c3 121c 	str.w	r1, [r3, #540]	; 0x21c
 80012c8:	f8d3 2200 	ldr.w	r2, [r3, #512]	; 0x200
 80012cc:	f022 0201 	bic.w	r2, r2, #1
 80012d0:	f8c3 2200 	str.w	r2, [r3, #512]	; 0x200
 80012d4:	bd70      	pop	{r4, r5, r6, pc}
 80012d6:	bf00      	nop
 80012d8:	40006400 	.word	0x40006400
 80012dc:	40006640 	.word	0x40006640

080012e0 <CAN_StructInit>:
 80012e0:	2300      	movs	r3, #0
 80012e2:	7183      	strb	r3, [r0, #6]
 80012e4:	71c3      	strb	r3, [r0, #7]
 80012e6:	7203      	strb	r3, [r0, #8]
 80012e8:	7243      	strb	r3, [r0, #9]
 80012ea:	7283      	strb	r3, [r0, #10]
 80012ec:	72c3      	strb	r3, [r0, #11]
 80012ee:	7083      	strb	r3, [r0, #2]
 80012f0:	70c3      	strb	r3, [r0, #3]
 80012f2:	2303      	movs	r3, #3
 80012f4:	7103      	strb	r3, [r0, #4]
 80012f6:	2302      	movs	r3, #2
 80012f8:	7143      	strb	r3, [r0, #5]
 80012fa:	2301      	movs	r3, #1
 80012fc:	8003      	strh	r3, [r0, #0]
 80012fe:	4770      	bx	lr

08001300 <CAN_SlaveStartBank>:
 8001300:	4b0d      	ldr	r3, [pc, #52]	; (8001338 <CAN_SlaveStartBank+0x38>)
 8001302:	f8d3 2200 	ldr.w	r2, [r3, #512]	; 0x200
 8001306:	f042 0201 	orr.w	r2, r2, #1
 800130a:	f8c3 2200 	str.w	r2, [r3, #512]	; 0x200
 800130e:	f8d3 2200 	ldr.w	r2, [r3, #512]	; 0x200
 8001312:	f422 527c 	bic.w	r2, r2, #16128	; 0x3f00
 8001316:	f022 020e 	bic.w	r2, r2, #14
 800131a:	f8c3 2200 	str.w	r2, [r3, #512]	; 0x200
 800131e:	f8d3 2200 	ldr.w	r2, [r3, #512]	; 0x200
 8001322:	ea42 2000 	orr.w	r0, r2, r0, lsl #8
 8001326:	f8c3 0200 	str.w	r0, [r3, #512]	; 0x200
 800132a:	f8d3 2200 	ldr.w	r2, [r3, #512]	; 0x200
 800132e:	f022 0201 	bic.w	r2, r2, #1
 8001332:	f8c3 2200 	str.w	r2, [r3, #512]	; 0x200
 8001336:	4770      	bx	lr
 8001338:	40006400 	.word	0x40006400

0800133c <CAN_ITConfig>:
 800133c:	6943      	ldr	r3, [r0, #20]
 800133e:	b10a      	cbz	r2, 8001344 <CAN_ITConfig+0x8>
 8001340:	4319      	orrs	r1, r3
 8001342:	e001      	b.n	8001348 <CAN_ITConfig+0xc>
 8001344:	ea23 0101 	bic.w	r1, r3, r1
 8001348:	6141      	str	r1, [r0, #20]
 800134a:	4770      	bx	lr

0800134c <CAN_Transmit>:
 800134c:	6882      	ldr	r2, [r0, #8]
 800134e:	4603      	mov	r3, r0
 8001350:	0150      	lsls	r0, r2, #5
 8001352:	b570      	push	{r4, r5, r6, lr}
 8001354:	d446      	bmi.n	80013e4 <CAN_Transmit+0x98>
 8001356:	689a      	ldr	r2, [r3, #8]
 8001358:	0112      	lsls	r2, r2, #4
 800135a:	d445      	bmi.n	80013e8 <CAN_Transmit+0x9c>
 800135c:	689a      	ldr	r2, [r3, #8]
 800135e:	00d0      	lsls	r0, r2, #3
 8001360:	d444      	bmi.n	80013ec <CAN_Transmit+0xa0>
 8001362:	2004      	movs	r0, #4
 8001364:	bd70      	pop	{r4, r5, r6, pc}
 8001366:	680c      	ldr	r4, [r1, #0]
 8001368:	7a4e      	ldrb	r6, [r1, #9]
 800136a:	589d      	ldr	r5, [r3, r2]
 800136c:	ea46 5444 	orr.w	r4, r6, r4, lsl #21
 8001370:	432c      	orrs	r4, r5
 8001372:	e006      	b.n	8001382 <CAN_Transmit+0x36>
 8001374:	684d      	ldr	r5, [r1, #4]
 8001376:	589e      	ldr	r6, [r3, r2]
 8001378:	ea44 04c5 	orr.w	r4, r4, r5, lsl #3
 800137c:	4334      	orrs	r4, r6
 800137e:	7a4e      	ldrb	r6, [r1, #9]
 8001380:	4334      	orrs	r4, r6
 8001382:	509c      	str	r4, [r3, r2]
 8001384:	7a8a      	ldrb	r2, [r1, #10]
 8001386:	f100 0418 	add.w	r4, r0, #24
 800138a:	0124      	lsls	r4, r4, #4
 800138c:	f002 020f 	and.w	r2, r2, #15
 8001390:	728a      	strb	r2, [r1, #10]
 8001392:	191a      	adds	r2, r3, r4
 8001394:	6855      	ldr	r5, [r2, #4]
 8001396:	f025 050f 	bic.w	r5, r5, #15
 800139a:	6055      	str	r5, [r2, #4]
 800139c:	6855      	ldr	r5, [r2, #4]
 800139e:	7a8e      	ldrb	r6, [r1, #10]
 80013a0:	4335      	orrs	r5, r6
 80013a2:	6055      	str	r5, [r2, #4]
 80013a4:	7b4e      	ldrb	r6, [r1, #13]
 80013a6:	7b8a      	ldrb	r2, [r1, #14]
 80013a8:	0436      	lsls	r6, r6, #16
 80013aa:	ea46 6602 	orr.w	r6, r6, r2, lsl #24
 80013ae:	7aca      	ldrb	r2, [r1, #11]
 80013b0:	4316      	orrs	r6, r2
 80013b2:	7b0a      	ldrb	r2, [r1, #12]
 80013b4:	ea46 2602 	orr.w	r6, r6, r2, lsl #8
 80013b8:	eb03 1200 	add.w	r2, r3, r0, lsl #4
 80013bc:	f8c2 6188 	str.w	r6, [r2, #392]	; 0x188
 80013c0:	f502 75c4 	add.w	r5, r2, #392	; 0x188
 80013c4:	7c4a      	ldrb	r2, [r1, #17]
 80013c6:	7c8e      	ldrb	r6, [r1, #18]
 80013c8:	0412      	lsls	r2, r2, #16
 80013ca:	ea42 6206 	orr.w	r2, r2, r6, lsl #24
 80013ce:	7bce      	ldrb	r6, [r1, #15]
 80013d0:	7c09      	ldrb	r1, [r1, #16]
 80013d2:	4332      	orrs	r2, r6
 80013d4:	ea42 2201 	orr.w	r2, r2, r1, lsl #8
 80013d8:	606a      	str	r2, [r5, #4]
 80013da:	591a      	ldr	r2, [r3, r4]
 80013dc:	f042 0201 	orr.w	r2, r2, #1
 80013e0:	511a      	str	r2, [r3, r4]
 80013e2:	bd70      	pop	{r4, r5, r6, pc}
 80013e4:	2000      	movs	r0, #0
 80013e6:	e002      	b.n	80013ee <CAN_Transmit+0xa2>
 80013e8:	2001      	movs	r0, #1
 80013ea:	e000      	b.n	80013ee <CAN_Transmit+0xa2>
 80013ec:	2002      	movs	r0, #2
 80013ee:	f100 0218 	add.w	r2, r0, #24
 80013f2:	0112      	lsls	r2, r2, #4
 80013f4:	589c      	ldr	r4, [r3, r2]
 80013f6:	f004 0401 	and.w	r4, r4, #1
 80013fa:	509c      	str	r4, [r3, r2]
 80013fc:	7a0c      	ldrb	r4, [r1, #8]
 80013fe:	2c00      	cmp	r4, #0
 8001400:	d0b1      	beq.n	8001366 <CAN_Transmit+0x1a>
 8001402:	e7b7      	b.n	8001374 <CAN_Transmit+0x28>

08001404 <CAN_TransmitStatus>:
 8001404:	2901      	cmp	r1, #1
 8001406:	d00f      	beq.n	8001428 <CAN_TransmitStatus+0x24>
 8001408:	d302      	bcc.n	8001410 <CAN_TransmitStatus+0xc>
 800140a:	2902      	cmp	r1, #2
 800140c:	d129      	bne.n	8001462 <CAN_TransmitStatus+0x5e>
 800140e:	e018      	b.n	8001442 <CAN_TransmitStatus+0x3e>
 8001410:	6882      	ldr	r2, [r0, #8]
 8001412:	6883      	ldr	r3, [r0, #8]
 8001414:	f002 0201 	and.w	r2, r2, #1
 8001418:	f003 0302 	and.w	r3, r3, #2
 800141c:	ea43 0382 	orr.w	r3, r3, r2, lsl #2
 8001420:	6882      	ldr	r2, [r0, #8]
 8001422:	f3c2 6280 	ubfx	r2, r2, #26, #1
 8001426:	e018      	b.n	800145a <CAN_TransmitStatus+0x56>
 8001428:	6883      	ldr	r3, [r0, #8]
 800142a:	6882      	ldr	r2, [r0, #8]
 800142c:	f403 7380 	and.w	r3, r3, #256	; 0x100
 8001430:	f402 7200 	and.w	r2, r2, #512	; 0x200
 8001434:	099b      	lsrs	r3, r3, #6
 8001436:	ea43 2312 	orr.w	r3, r3, r2, lsr #8
 800143a:	6882      	ldr	r2, [r0, #8]
 800143c:	f3c2 62c0 	ubfx	r2, r2, #27, #1
 8001440:	e00b      	b.n	800145a <CAN_TransmitStatus+0x56>
 8001442:	6883      	ldr	r3, [r0, #8]
 8001444:	6882      	ldr	r2, [r0, #8]
 8001446:	f403 3380 	and.w	r3, r3, #65536	; 0x10000
 800144a:	f402 3200 	and.w	r2, r2, #131072	; 0x20000
 800144e:	0b9b      	lsrs	r3, r3, #14
 8001450:	ea43 4312 	orr.w	r3, r3, r2, lsr #16
 8001454:	6882      	ldr	r2, [r0, #8]
 8001456:	f3c2 7200 	ubfx	r2, r2, #28, #1
 800145a:	4313      	orrs	r3, r2
 800145c:	4a02      	ldr	r2, [pc, #8]	; (8001468 <CAN_TransmitStatus+0x64>)
 800145e:	5cd0      	ldrb	r0, [r2, r3]
 8001460:	4770      	bx	lr
 8001462:	2300      	movs	r3, #0
 8001464:	e7fa      	b.n	800145c <CAN_TransmitStatus+0x58>
 8001466:	bf00      	nop
 8001468:	0800502c 	.word	0x0800502c

0800146c <CAN_CancelTransmit>:
 800146c:	2901      	cmp	r1, #1
 800146e:	d007      	beq.n	8001480 <CAN_CancelTransmit+0x14>
 8001470:	d302      	bcc.n	8001478 <CAN_CancelTransmit+0xc>
 8001472:	2902      	cmp	r1, #2
 8001474:	d10c      	bne.n	8001490 <CAN_CancelTransmit+0x24>
 8001476:	e007      	b.n	8001488 <CAN_CancelTransmit+0x1c>
 8001478:	6883      	ldr	r3, [r0, #8]
 800147a:	f043 0380 	orr.w	r3, r3, #128	; 0x80
 800147e:	e006      	b.n	800148e <CAN_CancelTransmit+0x22>
 8001480:	6883      	ldr	r3, [r0, #8]
 8001482:	f443 4300 	orr.w	r3, r3, #32768	; 0x8000
 8001486:	e002      	b.n	800148e <CAN_CancelTransmit+0x22>
 8001488:	6883      	ldr	r3, [r0, #8]
 800148a:	f443 0300 	orr.w	r3, r3, #8388608	; 0x800000
 800148e:	6083      	str	r3, [r0, #8]
 8001490:	4770      	bx	lr

08001492 <CAN_FIFORelease>:
 8001492:	2320      	movs	r3, #32
 8001494:	b909      	cbnz	r1, 800149a <CAN_FIFORelease+0x8>
 8001496:	60c3      	str	r3, [r0, #12]
 8001498:	4770      	bx	lr
 800149a:	6103      	str	r3, [r0, #16]
 800149c:	4770      	bx	lr

0800149e <CAN_MessagePending>:
 800149e:	b909      	cbnz	r1, 80014a4 <CAN_MessagePending+0x6>
 80014a0:	68c0      	ldr	r0, [r0, #12]
 80014a2:	e002      	b.n	80014aa <CAN_MessagePending+0xc>
 80014a4:	2901      	cmp	r1, #1
 80014a6:	d103      	bne.n	80014b0 <CAN_MessagePending+0x12>
 80014a8:	6900      	ldr	r0, [r0, #16]
 80014aa:	f000 0003 	and.w	r0, r0, #3
 80014ae:	4770      	bx	lr
 80014b0:	2000      	movs	r0, #0
 80014b2:	4770      	bx	lr

080014b4 <CAN_Receive>:
 80014b4:	b530      	push	{r4, r5, lr}
 80014b6:	f101 041b 	add.w	r4, r1, #27
 80014ba:	0123      	lsls	r3, r4, #4
 80014bc:	58c5      	ldr	r5, [r0, r3]
 80014be:	f005 0504 	and.w	r5, r5, #4
 80014c2:	b2ed      	uxtb	r5, r5
 80014c4:	7215      	strb	r5, [r2, #8]
 80014c6:	58c3      	ldr	r3, [r0, r3]
 80014c8:	b915      	cbnz	r5, 80014d0 <CAN_Receive+0x1c>
 80014ca:	0d5b      	lsrs	r3, r3, #21
 80014cc:	6013      	str	r3, [r2, #0]
 80014ce:	e001      	b.n	80014d4 <CAN_Receive+0x20>
 80014d0:	08db      	lsrs	r3, r3, #3
 80014d2:	6053      	str	r3, [r2, #4]
 80014d4:	0124      	lsls	r4, r4, #4
 80014d6:	1903      	adds	r3, r0, r4
 80014d8:	5904      	ldr	r4, [r0, r4]
 80014da:	f004 0402 	and.w	r4, r4, #2
 80014de:	7254      	strb	r4, [r2, #9]
 80014e0:	685c      	ldr	r4, [r3, #4]
 80014e2:	f004 040f 	and.w	r4, r4, #15
 80014e6:	7294      	strb	r4, [r2, #10]
 80014e8:	685b      	ldr	r3, [r3, #4]
 80014ea:	0a1b      	lsrs	r3, r3, #8
 80014ec:	74d3      	strb	r3, [r2, #19]
 80014ee:	eb00 1301 	add.w	r3, r0, r1, lsl #4
 80014f2:	f8d3 51b8 	ldr.w	r5, [r3, #440]	; 0x1b8
 80014f6:	f503 74dc 	add.w	r4, r3, #440	; 0x1b8
 80014fa:	72d5      	strb	r5, [r2, #11]
 80014fc:	f8d3 51b8 	ldr.w	r5, [r3, #440]	; 0x1b8
 8001500:	0a2d      	lsrs	r5, r5, #8
 8001502:	7315      	strb	r5, [r2, #12]
 8001504:	f8d3 51b8 	ldr.w	r5, [r3, #440]	; 0x1b8
 8001508:	0c2d      	lsrs	r5, r5, #16
 800150a:	7355      	strb	r5, [r2, #13]
 800150c:	f8d3 31b8 	ldr.w	r3, [r3, #440]	; 0x1b8
 8001510:	0e1b      	lsrs	r3, r3, #24
 8001512:	7393      	strb	r3, [r2, #14]
 8001514:	6863      	ldr	r3, [r4, #4]
 8001516:	73d3      	strb	r3, [r2, #15]
 8001518:	6863      	ldr	r3, [r4, #4]
 800151a:	0a1b      	lsrs	r3, r3, #8
 800151c:	7413      	strb	r3, [r2, #16]
 800151e:	6863      	ldr	r3, [r4, #4]
 8001520:	0c1b      	lsrs	r3, r3, #16
 8001522:	7453      	strb	r3, [r2, #17]
 8001524:	6863      	ldr	r3, [r4, #4]
 8001526:	0e1b      	lsrs	r3, r3, #24
 8001528:	7493      	strb	r3, [r2, #18]
 800152a:	2320      	movs	r3, #32
 800152c:	b909      	cbnz	r1, 8001532 <CAN_Receive+0x7e>
 800152e:	60c3      	str	r3, [r0, #12]
 8001530:	bd30      	pop	{r4, r5, pc}
 8001532:	6103      	str	r3, [r0, #16]
 8001534:	bd30      	pop	{r4, r5, pc}

08001536 <CAN_DBGFreeze>:
 8001536:	6803      	ldr	r3, [r0, #0]
 8001538:	b111      	cbz	r1, 8001540 <CAN_DBGFreeze+0xa>
 800153a:	f443 3380 	orr.w	r3, r3, #65536	; 0x10000
 800153e:	e001      	b.n	8001544 <CAN_DBGFreeze+0xe>
 8001540:	f423 3380 	bic.w	r3, r3, #65536	; 0x10000
 8001544:	6003      	str	r3, [r0, #0]
 8001546:	4770      	bx	lr

08001548 <CAN_Sleep>:
 8001548:	6803      	ldr	r3, [r0, #0]
 800154a:	f023 0303 	bic.w	r3, r3, #3
 800154e:	f043 0302 	orr.w	r3, r3, #2
 8001552:	6003      	str	r3, [r0, #0]
 8001554:	6840      	ldr	r0, [r0, #4]
 8001556:	f000 0003 	and.w	r0, r0, #3
 800155a:	f1b0 0c02 	subs.w	ip, r0, #2
 800155e:	f1dc 0000 	rsbs	r0, ip, #0
 8001562:	eb50 000c 	adcs.w	r0, r0, ip
 8001566:	4770      	bx	lr

08001568 <CAN_WakeUp>:
 8001568:	6803      	ldr	r3, [r0, #0]
 800156a:	f023 0302 	bic.w	r3, r3, #2
 800156e:	6003      	str	r3, [r0, #0]
 8001570:	f44f 3380 	mov.w	r3, #65536	; 0x10000
 8001574:	6842      	ldr	r2, [r0, #4]
 8001576:	0792      	lsls	r2, r2, #30
 8001578:	d501      	bpl.n	800157e <CAN_WakeUp+0x16>
 800157a:	3b01      	subs	r3, #1
 800157c:	d1fa      	bne.n	8001574 <CAN_WakeUp+0xc>
 800157e:	6840      	ldr	r0, [r0, #4]
 8001580:	f080 0002 	eor.w	r0, r0, #2
 8001584:	f3c0 0040 	ubfx	r0, r0, #1, #1
 8001588:	4770      	bx	lr

0800158a <CAN_GetFlagStatus>:
 800158a:	6983      	ldr	r3, [r0, #24]
 800158c:	4219      	tst	r1, r3
 800158e:	bf0c      	ite	eq
 8001590:	2000      	moveq	r0, #0
 8001592:	2001      	movne	r0, #1
 8001594:	4770      	bx	lr

08001596 <CAN_ClearFlag>:
 8001596:	6983      	ldr	r3, [r0, #24]
 8001598:	ea23 0101 	bic.w	r1, r3, r1
 800159c:	6181      	str	r1, [r0, #24]
 800159e:	4770      	bx	lr

080015a0 <CAN_GetITStatus>:
 80015a0:	2920      	cmp	r1, #32
 80015a2:	d02f      	beq.n	8001604 <CAN_GetITStatus+0x64>
 80015a4:	d80c      	bhi.n	80015c0 <CAN_GetITStatus+0x20>
 80015a6:	2906      	cmp	r1, #6
 80015a8:	d020      	beq.n	80015ec <CAN_GetITStatus+0x4c>
 80015aa:	d804      	bhi.n	80015b6 <CAN_GetITStatus+0x16>
 80015ac:	2904      	cmp	r1, #4
 80015ae:	d025      	beq.n	80015fc <CAN_GetITStatus+0x5c>
 80015b0:	2905      	cmp	r1, #5
 80015b2:	d13f      	bne.n	8001634 <CAN_GetITStatus+0x94>
 80015b4:	e018      	b.n	80015e8 <CAN_GetITStatus+0x48>
 80015b6:	2907      	cmp	r1, #7
 80015b8:	d01c      	beq.n	80015f4 <CAN_GetITStatus+0x54>
 80015ba:	2908      	cmp	r1, #8
 80015bc:	d13a      	bne.n	8001634 <CAN_GetITStatus+0x94>
 80015be:	e01f      	b.n	8001600 <CAN_GetITStatus+0x60>
 80015c0:	f5b1 7f00 	cmp.w	r1, #512	; 0x200
 80015c4:	d026      	beq.n	8001614 <CAN_GetITStatus+0x74>
 80015c6:	d805      	bhi.n	80015d4 <CAN_GetITStatus+0x34>
 80015c8:	2940      	cmp	r1, #64	; 0x40
 80015ca:	d01d      	beq.n	8001608 <CAN_GetITStatus+0x68>
 80015cc:	f5b1 7f80 	cmp.w	r1, #256	; 0x100
 80015d0:	d130      	bne.n	8001634 <CAN_GetITStatus+0x94>
 80015d2:	e01b      	b.n	800160c <CAN_GetITStatus+0x6c>
 80015d4:	f5b1 3f80 	cmp.w	r1, #65536	; 0x10000
 80015d8:	d028      	beq.n	800162c <CAN_GetITStatus+0x8c>
 80015da:	f5b1 3f00 	cmp.w	r1, #131072	; 0x20000
 80015de:	d021      	beq.n	8001624 <CAN_GetITStatus+0x84>
 80015e0:	f5b1 6f80 	cmp.w	r1, #1024	; 0x400
 80015e4:	d126      	bne.n	8001634 <CAN_GetITStatus+0x94>
 80015e6:	e019      	b.n	800161c <CAN_GetITStatus+0x7c>
 80015e8:	6880      	ldr	r0, [r0, #8]
 80015ea:	e010      	b.n	800160e <CAN_GetITStatus+0x6e>
 80015ec:	6880      	ldr	r0, [r0, #8]
 80015ee:	f3c0 2000 	ubfx	r0, r0, #8, #1
 80015f2:	4770      	bx	lr
 80015f4:	6880      	ldr	r0, [r0, #8]
 80015f6:	f3c0 4000 	ubfx	r0, r0, #16, #1
 80015fa:	4770      	bx	lr
 80015fc:	68c0      	ldr	r0, [r0, #12]
 80015fe:	e016      	b.n	800162e <CAN_GetITStatus+0x8e>
 8001600:	68c0      	ldr	r0, [r0, #12]
 8001602:	e010      	b.n	8001626 <CAN_GetITStatus+0x86>
 8001604:	6900      	ldr	r0, [r0, #16]
 8001606:	e012      	b.n	800162e <CAN_GetITStatus+0x8e>
 8001608:	6900      	ldr	r0, [r0, #16]
 800160a:	e00c      	b.n	8001626 <CAN_GetITStatus+0x86>
 800160c:	6980      	ldr	r0, [r0, #24]
 800160e:	f000 0001 	and.w	r0, r0, #1
 8001612:	4770      	bx	lr
 8001614:	6980      	ldr	r0, [r0, #24]
 8001616:	f3c0 0040 	ubfx	r0, r0, #1, #1
 800161a:	4770      	bx	lr
 800161c:	6980      	ldr	r0, [r0, #24]
 800161e:	f3c0 0080 	ubfx	r0, r0, #2, #1
 8001622:	4770      	bx	lr
 8001624:	6840      	ldr	r0, [r0, #4]
 8001626:	f3c0 1000 	ubfx	r0, r0, #4, #1
 800162a:	4770      	bx	lr
 800162c:	6840      	ldr	r0, [r0, #4]
 800162e:	f3c0 00c0 	ubfx	r0, r0, #3, #1
 8001632:	4770      	bx	lr
 8001634:	2000      	movs	r0, #0
 8001636:	4770      	bx	lr

08001638 <CAN_ClearITPendingBit>:
 8001638:	2920      	cmp	r1, #32
 800163a:	d02f      	beq.n	800169c <CAN_ClearITPendingBit+0x64>
 800163c:	d80c      	bhi.n	8001658 <CAN_ClearITPendingBit+0x20>
 800163e:	2906      	cmp	r1, #6
 8001640:	d020      	beq.n	8001684 <CAN_ClearITPendingBit+0x4c>
 8001642:	d804      	bhi.n	800164e <CAN_ClearITPendingBit+0x16>
 8001644:	2904      	cmp	r1, #4
 8001646:	d024      	beq.n	8001692 <CAN_ClearITPendingBit+0x5a>
 8001648:	2905      	cmp	r1, #5
 800164a:	d13d      	bne.n	80016c8 <CAN_ClearITPendingBit+0x90>
 800164c:	e018      	b.n	8001680 <CAN_ClearITPendingBit+0x48>
 800164e:	2907      	cmp	r1, #7
 8001650:	d01c      	beq.n	800168c <CAN_ClearITPendingBit+0x54>
 8001652:	2908      	cmp	r1, #8
 8001654:	d138      	bne.n	80016c8 <CAN_ClearITPendingBit+0x90>
 8001656:	e01e      	b.n	8001696 <CAN_ClearITPendingBit+0x5e>
 8001658:	f5b1 7f00 	cmp.w	r1, #512	; 0x200
 800165c:	d027      	beq.n	80016ae <CAN_ClearITPendingBit+0x76>
 800165e:	d805      	bhi.n	800166c <CAN_ClearITPendingBit+0x34>
 8001660:	2940      	cmp	r1, #64	; 0x40
 8001662:	d01d      	beq.n	80016a0 <CAN_ClearITPendingBit+0x68>
 8001664:	f5b1 7f80 	cmp.w	r1, #256	; 0x100
 8001668:	d12e      	bne.n	80016c8 <CAN_ClearITPendingBit+0x90>
 800166a:	e01c      	b.n	80016a6 <CAN_ClearITPendingBit+0x6e>
 800166c:	f5b1 3f80 	cmp.w	r1, #65536	; 0x10000
 8001670:	d026      	beq.n	80016c0 <CAN_ClearITPendingBit+0x88>
 8001672:	f5b1 3f00 	cmp.w	r1, #131072	; 0x20000
 8001676:	d025      	beq.n	80016c4 <CAN_ClearITPendingBit+0x8c>
 8001678:	f5b1 6f80 	cmp.w	r1, #1024	; 0x400
 800167c:	d124      	bne.n	80016c8 <CAN_ClearITPendingBit+0x90>
 800167e:	e01a      	b.n	80016b6 <CAN_ClearITPendingBit+0x7e>
 8001680:	2301      	movs	r3, #1
 8001682:	e001      	b.n	8001688 <CAN_ClearITPendingBit+0x50>
 8001684:	f44f 7380 	mov.w	r3, #256	; 0x100
 8001688:	6083      	str	r3, [r0, #8]
 800168a:	4770      	bx	lr
 800168c:	f44f 3380 	mov.w	r3, #65536	; 0x10000
 8001690:	e7fa      	b.n	8001688 <CAN_ClearITPendingBit+0x50>
 8001692:	2308      	movs	r3, #8
 8001694:	e000      	b.n	8001698 <CAN_ClearITPendingBit+0x60>
 8001696:	2310      	movs	r3, #16
 8001698:	60c3      	str	r3, [r0, #12]
 800169a:	4770      	bx	lr
 800169c:	2308      	movs	r3, #8
 800169e:	e000      	b.n	80016a2 <CAN_ClearITPendingBit+0x6a>
 80016a0:	2310      	movs	r3, #16
 80016a2:	6103      	str	r3, [r0, #16]
 80016a4:	4770      	bx	lr
 80016a6:	6983      	ldr	r3, [r0, #24]
 80016a8:	f023 0301 	bic.w	r3, r3, #1
 80016ac:	e006      	b.n	80016bc <CAN_ClearITPendingBit+0x84>
 80016ae:	6983      	ldr	r3, [r0, #24]
 80016b0:	f023 0302 	bic.w	r3, r3, #2
 80016b4:	e002      	b.n	80016bc <CAN_ClearITPendingBit+0x84>
 80016b6:	6983      	ldr	r3, [r0, #24]
 80016b8:	f023 0304 	bic.w	r3, r3, #4
 80016bc:	6183      	str	r3, [r0, #24]
 80016be:	4770      	bx	lr
 80016c0:	2308      	movs	r3, #8
 80016c2:	e000      	b.n	80016c6 <CAN_ClearITPendingBit+0x8e>
 80016c4:	2310      	movs	r3, #16
 80016c6:	6043      	str	r3, [r0, #4]
 80016c8:	4770      	bx	lr
 80016ca:	bf00      	nop

080016cc <CEC_DeInit>:
 80016cc:	b508      	push	{r3, lr}
 80016ce:	f04f 4080 	mov.w	r0, #1073741824	; 0x40000000
 80016d2:	2101      	movs	r1, #1
 80016d4:	f001 ff3c 	bl	8003550 <RCC_APB1PeriphResetCmd>
 80016d8:	f04f 4080 	mov.w	r0, #1073741824	; 0x40000000
 80016dc:	2100      	movs	r1, #0
 80016de:	e8bd 4008 	ldmia.w	sp!, {r3, lr}
 80016e2:	f001 bf35 	b.w	8003550 <RCC_APB1PeriphResetCmd>

080016e6 <CEC_Init>:
 80016e6:	4b06      	ldr	r3, [pc, #24]	; (8001700 <CEC_Init+0x1a>)
 80016e8:	b510      	push	{r4, lr}
 80016ea:	6819      	ldr	r1, [r3, #0]
 80016ec:	8844      	ldrh	r4, [r0, #2]
 80016ee:	8802      	ldrh	r2, [r0, #0]
 80016f0:	f001 01f3 	and.w	r1, r1, #243	; 0xf3
 80016f4:	4322      	orrs	r2, r4
 80016f6:	430a      	orrs	r2, r1
 80016f8:	b292      	uxth	r2, r2
 80016fa:	601a      	str	r2, [r3, #0]
 80016fc:	bd10      	pop	{r4, pc}
 80016fe:	bf00      	nop
 8001700:	40007800 	.word	0x40007800

08001704 <CEC_Cmd>:
 8001704:	4b03      	ldr	r3, [pc, #12]	; (8001714 <CEC_Cmd+0x10>)
 8001706:	6018      	str	r0, [r3, #0]
 8001708:	b918      	cbnz	r0, 8001712 <CEC_Cmd+0xe>
 800170a:	4a03      	ldr	r2, [pc, #12]	; (8001718 <CEC_Cmd+0x14>)
 800170c:	6813      	ldr	r3, [r2, #0]
 800170e:	07db      	lsls	r3, r3, #31
 8001710:	d4fc      	bmi.n	800170c <CEC_Cmd+0x8>
 8001712:	4770      	bx	lr
 8001714:	420f0000 	.word	0x420f0000
 8001718:	40007800 	.word	0x40007800

0800171c <CEC_ITConfig>:
 800171c:	4b01      	ldr	r3, [pc, #4]	; (8001724 <CEC_ITConfig+0x8>)
 800171e:	6018      	str	r0, [r3, #0]
 8001720:	4770      	bx	lr
 8001722:	bf00      	nop
 8001724:	420f0004 	.word	0x420f0004

08001728 <CEC_OwnAddressConfig>:
 8001728:	4b01      	ldr	r3, [pc, #4]	; (8001730 <CEC_OwnAddressConfig+0x8>)
 800172a:	6058      	str	r0, [r3, #4]
 800172c:	4770      	bx	lr
 800172e:	bf00      	nop
 8001730:	40007800 	.word	0x40007800

08001734 <CEC_SetPrescaler>:
 8001734:	4b01      	ldr	r3, [pc, #4]	; (800173c <CEC_SetPrescaler+0x8>)
 8001736:	6098      	str	r0, [r3, #8]
 8001738:	4770      	bx	lr
 800173a:	bf00      	nop
 800173c:	40007800 	.word	0x40007800

08001740 <CEC_SendDataByte>:
 8001740:	4b01      	ldr	r3, [pc, #4]	; (8001748 <CEC_SendDataByte+0x8>)
 8001742:	6158      	str	r0, [r3, #20]
 8001744:	4770      	bx	lr
 8001746:	bf00      	nop
 8001748:	40007800 	.word	0x40007800

0800174c <CEC_ReceiveDataByte>:
 800174c:	4b01      	ldr	r3, [pc, #4]	; (8001754 <CEC_ReceiveDataByte+0x8>)
 800174e:	6998      	ldr	r0, [r3, #24]
 8001750:	b2c0      	uxtb	r0, r0
 8001752:	4770      	bx	lr
 8001754:	40007800 	.word	0x40007800

08001758 <CEC_StartOfMessage>:
 8001758:	4b01      	ldr	r3, [pc, #4]	; (8001760 <CEC_StartOfMessage+0x8>)
 800175a:	2201      	movs	r2, #1
 800175c:	601a      	str	r2, [r3, #0]
 800175e:	4770      	bx	lr
 8001760:	420f0200 	.word	0x420f0200

08001764 <CEC_EndOfMessageCmd>:
 8001764:	4b01      	ldr	r3, [pc, #4]	; (800176c <CEC_EndOfMessageCmd+0x8>)
 8001766:	6018      	str	r0, [r3, #0]
 8001768:	4770      	bx	lr
 800176a:	bf00      	nop
 800176c:	420f0204 	.word	0x420f0204

08001770 <CEC_GetFlagStatus>:
 8001770:	f020 437f 	bic.w	r3, r0, #4278190080	; 0xff000000
 8001774:	0f00      	lsrs	r0, r0, #28
 8001776:	bf16      	itet	ne
 8001778:	4a04      	ldrne	r2, [pc, #16]	; (800178c <CEC_GetFlagStatus+0x1c>)
 800177a:	4a05      	ldreq	r2, [pc, #20]	; (8001790 <CEC_GetFlagStatus+0x20>)
 800177c:	0c1b      	lsrne	r3, r3, #16
 800177e:	6812      	ldr	r2, [r2, #0]
 8001780:	421a      	tst	r2, r3
 8001782:	bf0c      	ite	eq
 8001784:	2000      	moveq	r0, #0
 8001786:	2001      	movne	r0, #1
 8001788:	4770      	bx	lr
 800178a:	bf00      	nop
 800178c:	4000780c 	.word	0x4000780c
 8001790:	40007810 	.word	0x40007810

08001794 <CEC_ClearFlag>:
 8001794:	4b05      	ldr	r3, [pc, #20]	; (80017ac <CEC_ClearFlag+0x18>)
 8001796:	43c0      	mvns	r0, r0
 8001798:	6919      	ldr	r1, [r3, #16]
 800179a:	f020 0003 	bic.w	r0, r0, #3
 800179e:	691a      	ldr	r2, [r3, #16]
 80017a0:	f001 0102 	and.w	r1, r1, #2
 80017a4:	4301      	orrs	r1, r0
 80017a6:	400a      	ands	r2, r1
 80017a8:	611a      	str	r2, [r3, #16]
 80017aa:	4770      	bx	lr
 80017ac:	40007800 	.word	0x40007800

080017b0 <CEC_GetITStatus>:
 80017b0:	4a03      	ldr	r2, [pc, #12]	; (80017c0 <CEC_GetITStatus+0x10>)
 80017b2:	6811      	ldr	r1, [r2, #0]
 80017b4:	6913      	ldr	r3, [r2, #16]
 80017b6:	4018      	ands	r0, r3
 80017b8:	bf18      	it	ne
 80017ba:	f3c1 0040 	ubfxne	r0, r1, #1, #1
 80017be:	4770      	bx	lr
 80017c0:	40007800 	.word	0x40007800

080017c4 <CEC_ClearITPendingBit>:
 80017c4:	4b05      	ldr	r3, [pc, #20]	; (80017dc <CEC_ClearITPendingBit+0x18>)
 80017c6:	43c0      	mvns	r0, r0
 80017c8:	6919      	ldr	r1, [r3, #16]
 80017ca:	f020 0003 	bic.w	r0, r0, #3
 80017ce:	691a      	ldr	r2, [r3, #16]
 80017d0:	f001 0102 	and.w	r1, r1, #2
 80017d4:	4301      	orrs	r1, r0
 80017d6:	400a      	ands	r2, r1
 80017d8:	611a      	str	r2, [r3, #16]
 80017da:	4770      	bx	lr
 80017dc:	40007800 	.word	0x40007800

080017e0 <CRC_ResetDR>:
 80017e0:	4b01      	ldr	r3, [pc, #4]	; (80017e8 <CRC_ResetDR+0x8>)
 80017e2:	2201      	movs	r2, #1
 80017e4:	609a      	str	r2, [r3, #8]
 80017e6:	4770      	bx	lr
 80017e8:	40023000 	.word	0x40023000

080017ec <CRC_CalcCRC>:
 80017ec:	4b01      	ldr	r3, [pc, #4]	; (80017f4 <CRC_CalcCRC+0x8>)
 80017ee:	6018      	str	r0, [r3, #0]
 80017f0:	6818      	ldr	r0, [r3, #0]
 80017f2:	4770      	bx	lr
 80017f4:	40023000 	.word	0x40023000

080017f8 <CRC_CalcBlockCRC>:
 80017f8:	b510      	push	{r4, lr}
 80017fa:	2300      	movs	r3, #0
 80017fc:	4c05      	ldr	r4, [pc, #20]	; (8001814 <CRC_CalcBlockCRC+0x1c>)
 80017fe:	e003      	b.n	8001808 <CRC_CalcBlockCRC+0x10>
 8001800:	f850 2023 	ldr.w	r2, [r0, r3, lsl #2]
 8001804:	3301      	adds	r3, #1
 8001806:	6022      	str	r2, [r4, #0]
 8001808:	428b      	cmp	r3, r1
 800180a:	d1f9      	bne.n	8001800 <CRC_CalcBlockCRC+0x8>
 800180c:	4b01      	ldr	r3, [pc, #4]	; (8001814 <CRC_CalcBlockCRC+0x1c>)
 800180e:	6818      	ldr	r0, [r3, #0]
 8001810:	bd10      	pop	{r4, pc}
 8001812:	bf00      	nop
 8001814:	40023000 	.word	0x40023000

08001818 <CRC_GetCRC>:
 8001818:	4b01      	ldr	r3, [pc, #4]	; (8001820 <CRC_GetCRC+0x8>)
 800181a:	6818      	ldr	r0, [r3, #0]
 800181c:	4770      	bx	lr
 800181e:	bf00      	nop
 8001820:	40023000 	.word	0x40023000

08001824 <CRC_SetIDRegister>:
 8001824:	4b01      	ldr	r3, [pc, #4]	; (800182c <CRC_SetIDRegister+0x8>)
 8001826:	7118      	strb	r0, [r3, #4]
 8001828:	4770      	bx	lr
 800182a:	bf00      	nop
 800182c:	40023000 	.word	0x40023000

08001830 <CRC_GetIDRegister>:
 8001830:	4b01      	ldr	r3, [pc, #4]	; (8001838 <CRC_GetIDRegister+0x8>)
 8001832:	7918      	ldrb	r0, [r3, #4]
 8001834:	4770      	bx	lr
 8001836:	bf00      	nop
 8001838:	40023000 	.word	0x40023000

0800183c <DAC_DeInit>:
 800183c:	b508      	push	{r3, lr}
 800183e:	f04f 5000 	mov.w	r0, #536870912	; 0x20000000
 8001842:	2101      	movs	r1, #1
 8001844:	f001 fe84 	bl	8003550 <RCC_APB1PeriphResetCmd>
 8001848:	f04f 5000 	mov.w	r0, #536870912	; 0x20000000
 800184c:	2100      	movs	r1, #0
 800184e:	e8bd 4008 	ldmia.w	sp!, {r3, lr}
 8001852:	f001 be7d 	b.w	8003550 <RCC_APB1PeriphResetCmd>

08001856 <DAC_Init>:
 8001856:	b530      	push	{r4, r5, lr}
 8001858:	f640 75fe 	movw	r5, #4094	; 0xffe
 800185c:	4085      	lsls	r5, r0
 800185e:	4b08      	ldr	r3, [pc, #32]	; (8001880 <DAC_Init+0x2a>)
 8001860:	681a      	ldr	r2, [r3, #0]
 8001862:	ea22 0505 	bic.w	r5, r2, r5
 8001866:	e891 0014 	ldmia.w	r1, {r2, r4}
 800186a:	4314      	orrs	r4, r2
 800186c:	688a      	ldr	r2, [r1, #8]
 800186e:	68c9      	ldr	r1, [r1, #12]
 8001870:	4322      	orrs	r2, r4
 8001872:	430a      	orrs	r2, r1
 8001874:	fa02 f000 	lsl.w	r0, r2, r0
 8001878:	4328      	orrs	r0, r5
 800187a:	6018      	str	r0, [r3, #0]
 800187c:	bd30      	pop	{r4, r5, pc}
 800187e:	bf00      	nop
 8001880:	40007400 	.word	0x40007400

08001884 <DAC_StructInit>:
 8001884:	2300      	movs	r3, #0
 8001886:	6003      	str	r3, [r0, #0]
 8001888:	6043      	str	r3, [r0, #4]
 800188a:	6083      	str	r3, [r0, #8]
 800188c:	60c3      	str	r3, [r0, #12]
 800188e:	4770      	bx	lr

08001890 <DAC_Cmd>:
 8001890:	4b06      	ldr	r3, [pc, #24]	; (80018ac <DAC_Cmd+0x1c>)
 8001892:	2201      	movs	r2, #1
 8001894:	b119      	cbz	r1, 800189e <DAC_Cmd+0xe>
 8001896:	4082      	lsls	r2, r0
 8001898:	6819      	ldr	r1, [r3, #0]
 800189a:	430a      	orrs	r2, r1
 800189c:	e003      	b.n	80018a6 <DAC_Cmd+0x16>
 800189e:	4082      	lsls	r2, r0
 80018a0:	6819      	ldr	r1, [r3, #0]
 80018a2:	ea21 0202 	bic.w	r2, r1, r2
 80018a6:	601a      	str	r2, [r3, #0]
 80018a8:	4770      	bx	lr
 80018aa:	bf00      	nop
 80018ac:	40007400 	.word	0x40007400

080018b0 <DAC_ITConfig>:
 80018b0:	4b05      	ldr	r3, [pc, #20]	; (80018c8 <DAC_ITConfig+0x18>)
 80018b2:	4081      	lsls	r1, r0
 80018b4:	b112      	cbz	r2, 80018bc <DAC_ITConfig+0xc>
 80018b6:	681a      	ldr	r2, [r3, #0]
 80018b8:	4311      	orrs	r1, r2
 80018ba:	e002      	b.n	80018c2 <DAC_ITConfig+0x12>
 80018bc:	681a      	ldr	r2, [r3, #0]
 80018be:	ea22 0101 	bic.w	r1, r2, r1
 80018c2:	6019      	str	r1, [r3, #0]
 80018c4:	4770      	bx	lr
 80018c6:	bf00      	nop
 80018c8:	40007400 	.word	0x40007400

080018cc <DAC_DMACmd>:
 80018cc:	4b06      	ldr	r3, [pc, #24]	; (80018e8 <DAC_DMACmd+0x1c>)
 80018ce:	f44f 5280 	mov.w	r2, #4096	; 0x1000
 80018d2:	b119      	cbz	r1, 80018dc <DAC_DMACmd+0x10>
 80018d4:	4082      	lsls	r2, r0
 80018d6:	6819      	ldr	r1, [r3, #0]
 80018d8:	430a      	orrs	r2, r1
 80018da:	e003      	b.n	80018e4 <DAC_DMACmd+0x18>
 80018dc:	4082      	lsls	r2, r0
 80018de:	6819      	ldr	r1, [r3, #0]
 80018e0:	ea21 0202 	bic.w	r2, r1, r2
 80018e4:	601a      	str	r2, [r3, #0]
 80018e6:	4770      	bx	lr
 80018e8:	40007400 	.word	0x40007400

080018ec <DAC_SoftwareTriggerCmd>:
 80018ec:	4b06      	ldr	r3, [pc, #24]	; (8001908 <DAC_SoftwareTriggerCmd+0x1c>)
 80018ee:	0900      	lsrs	r0, r0, #4
 80018f0:	2201      	movs	r2, #1
 80018f2:	b119      	cbz	r1, 80018fc <DAC_SoftwareTriggerCmd+0x10>
 80018f4:	4082      	lsls	r2, r0
 80018f6:	6859      	ldr	r1, [r3, #4]
 80018f8:	430a      	orrs	r2, r1
 80018fa:	e003      	b.n	8001904 <DAC_SoftwareTriggerCmd+0x18>
 80018fc:	4082      	lsls	r2, r0
 80018fe:	6859      	ldr	r1, [r3, #4]
 8001900:	ea21 0202 	bic.w	r2, r1, r2
 8001904:	605a      	str	r2, [r3, #4]
 8001906:	4770      	bx	lr
 8001908:	40007400 	.word	0x40007400

0800190c <DAC_DualSoftwareTriggerCmd>:
 800190c:	4b04      	ldr	r3, [pc, #16]	; (8001920 <DAC_DualSoftwareTriggerCmd+0x14>)
 800190e:	685a      	ldr	r2, [r3, #4]
 8001910:	b110      	cbz	r0, 8001918 <DAC_DualSoftwareTriggerCmd+0xc>
 8001912:	f042 0203 	orr.w	r2, r2, #3
 8001916:	e001      	b.n	800191c <DAC_DualSoftwareTriggerCmd+0x10>
 8001918:	f022 0203 	bic.w	r2, r2, #3
 800191c:	605a      	str	r2, [r3, #4]
 800191e:	4770      	bx	lr
 8001920:	40007400 	.word	0x40007400

08001924 <DAC_WaveGenerationCmd>:
 8001924:	4b05      	ldr	r3, [pc, #20]	; (800193c <DAC_WaveGenerationCmd+0x18>)
 8001926:	4081      	lsls	r1, r0
 8001928:	b112      	cbz	r2, 8001930 <DAC_WaveGenerationCmd+0xc>
 800192a:	681a      	ldr	r2, [r3, #0]
 800192c:	4311      	orrs	r1, r2
 800192e:	e002      	b.n	8001936 <DAC_WaveGenerationCmd+0x12>
 8001930:	681a      	ldr	r2, [r3, #0]
 8001932:	ea22 0101 	bic.w	r1, r2, r1
 8001936:	6019      	str	r1, [r3, #0]
 8001938:	4770      	bx	lr
 800193a:	bf00      	nop
 800193c:	40007400 	.word	0x40007400

08001940 <DAC_SetChannel1Data>:
 8001940:	b082      	sub	sp, #8
 8001942:	2300      	movs	r3, #0
 8001944:	9301      	str	r3, [sp, #4]
 8001946:	4b05      	ldr	r3, [pc, #20]	; (800195c <DAC_SetChannel1Data+0x1c>)
 8001948:	9301      	str	r3, [sp, #4]
 800194a:	9b01      	ldr	r3, [sp, #4]
 800194c:	3308      	adds	r3, #8
 800194e:	1818      	adds	r0, r3, r0
 8001950:	9001      	str	r0, [sp, #4]
 8001952:	9b01      	ldr	r3, [sp, #4]
 8001954:	6019      	str	r1, [r3, #0]
 8001956:	b002      	add	sp, #8
 8001958:	4770      	bx	lr
 800195a:	bf00      	nop
 800195c:	40007400 	.word	0x40007400

08001960 <DAC_SetChannel2Data>:
 8001960:	b082      	sub	sp, #8
 8001962:	2300      	movs	r3, #0
 8001964:	9301      	str	r3, [sp, #4]
 8001966:	4b05      	ldr	r3, [pc, #20]	; (800197c <DAC_SetChannel2Data+0x1c>)
 8001968:	9301      	str	r3, [sp, #4]
 800196a:	9b01      	ldr	r3, [sp, #4]
 800196c:	3314      	adds	r3, #20
 800196e:	1818      	adds	r0, r3, r0
 8001970:	9001      	str	r0, [sp, #4]
 8001972:	9b01      	ldr	r3, [sp, #4]
 8001974:	6019      	str	r1, [r3, #0]
 8001976:	b002      	add	sp, #8
 8001978:	4770      	bx	lr
 800197a:	bf00      	nop
 800197c:	40007400 	.word	0x40007400

08001980 <DAC_SetDualChannelData>:
 8001980:	2808      	cmp	r0, #8
 8001982:	4b04      	ldr	r3, [pc, #16]	; (8001994 <DAC_SetDualChannelData+0x14>)
 8001984:	bf0c      	ite	eq
 8001986:	ea42 2101 	orreq.w	r1, r2, r1, lsl #8
 800198a:	ea42 4101 	orrne.w	r1, r2, r1, lsl #16
 800198e:	50c1      	str	r1, [r0, r3]
 8001990:	4770      	bx	lr
 8001992:	bf00      	nop
 8001994:	40007420 	.word	0x40007420

08001998 <DAC_GetDataOutputValue>:
 8001998:	b082      	sub	sp, #8
 800199a:	2300      	movs	r3, #0
 800199c:	9301      	str	r3, [sp, #4]
 800199e:	4b06      	ldr	r3, [pc, #24]	; (80019b8 <DAC_GetDataOutputValue+0x20>)
 80019a0:	9301      	str	r3, [sp, #4]
 80019a2:	9b01      	ldr	r3, [sp, #4]
 80019a4:	332c      	adds	r3, #44	; 0x2c
 80019a6:	eb03 0090 	add.w	r0, r3, r0, lsr #2
 80019aa:	9001      	str	r0, [sp, #4]
 80019ac:	9b01      	ldr	r3, [sp, #4]
 80019ae:	6818      	ldr	r0, [r3, #0]
 80019b0:	b280      	uxth	r0, r0
 80019b2:	b002      	add	sp, #8
 80019b4:	4770      	bx	lr
 80019b6:	bf00      	nop
 80019b8:	40007400 	.word	0x40007400

080019bc <DAC_GetFlagStatus>:
 80019bc:	4081      	lsls	r1, r0
 80019be:	4b03      	ldr	r3, [pc, #12]	; (80019cc <DAC_GetFlagStatus+0x10>)
 80019c0:	6b5b      	ldr	r3, [r3, #52]	; 0x34
 80019c2:	4219      	tst	r1, r3
 80019c4:	bf0c      	ite	eq
 80019c6:	2000      	moveq	r0, #0
 80019c8:	2001      	movne	r0, #1
 80019ca:	4770      	bx	lr
 80019cc:	40007400 	.word	0x40007400

080019d0 <DAC_ClearFlag>:
 80019d0:	4081      	lsls	r1, r0
 80019d2:	4b01      	ldr	r3, [pc, #4]	; (80019d8 <DAC_ClearFlag+0x8>)
 80019d4:	6359      	str	r1, [r3, #52]	; 0x34
 80019d6:	4770      	bx	lr
 80019d8:	40007400 	.word	0x40007400

080019dc <DAC_GetITStatus>:
 80019dc:	4081      	lsls	r1, r0
 80019de:	4b05      	ldr	r3, [pc, #20]	; (80019f4 <DAC_GetITStatus+0x18>)
 80019e0:	681a      	ldr	r2, [r3, #0]
 80019e2:	6b58      	ldr	r0, [r3, #52]	; 0x34
 80019e4:	4008      	ands	r0, r1
 80019e6:	d003      	beq.n	80019f0 <DAC_GetITStatus+0x14>
 80019e8:	4211      	tst	r1, r2
 80019ea:	bf0c      	ite	eq
 80019ec:	2000      	moveq	r0, #0
 80019ee:	2001      	movne	r0, #1
 80019f0:	4770      	bx	lr
 80019f2:	bf00      	nop
 80019f4:	40007400 	.word	0x40007400

080019f8 <DAC_ClearITPendingBit>:
 80019f8:	4081      	lsls	r1, r0
 80019fa:	4b01      	ldr	r3, [pc, #4]	; (8001a00 <DAC_ClearITPendingBit+0x8>)
 80019fc:	6359      	str	r1, [r3, #52]	; 0x34
 80019fe:	4770      	bx	lr
 8001a00:	40007400 	.word	0x40007400

08001a04 <DBGMCU_GetREVID>:
 8001a04:	4b01      	ldr	r3, [pc, #4]	; (8001a0c <DBGMCU_GetREVID+0x8>)
 8001a06:	6818      	ldr	r0, [r3, #0]
 8001a08:	0c00      	lsrs	r0, r0, #16
 8001a0a:	4770      	bx	lr
 8001a0c:	e0042000 	.word	0xe0042000

08001a10 <DBGMCU_GetDEVID>:
 8001a10:	4b02      	ldr	r3, [pc, #8]	; (8001a1c <DBGMCU_GetDEVID+0xc>)
 8001a12:	6818      	ldr	r0, [r3, #0]
 8001a14:	f3c0 000b 	ubfx	r0, r0, #0, #12
 8001a18:	4770      	bx	lr
 8001a1a:	bf00      	nop
 8001a1c:	e0042000 	.word	0xe0042000

08001a20 <DBGMCU_Config>:
 8001a20:	4b04      	ldr	r3, [pc, #16]	; (8001a34 <DBGMCU_Config+0x14>)
 8001a22:	685a      	ldr	r2, [r3, #4]
 8001a24:	b109      	cbz	r1, 8001a2a <DBGMCU_Config+0xa>
 8001a26:	4310      	orrs	r0, r2
 8001a28:	e001      	b.n	8001a2e <DBGMCU_Config+0xe>
 8001a2a:	ea22 0000 	bic.w	r0, r2, r0
 8001a2e:	6058      	str	r0, [r3, #4]
 8001a30:	4770      	bx	lr
 8001a32:	bf00      	nop
 8001a34:	e0042000 	.word	0xe0042000

08001a38 <DMA_DeInit>:
 8001a38:	6803      	ldr	r3, [r0, #0]
 8001a3a:	f023 0301 	bic.w	r3, r3, #1
 8001a3e:	6003      	str	r3, [r0, #0]
 8001a40:	2300      	movs	r3, #0
 8001a42:	6003      	str	r3, [r0, #0]
 8001a44:	6043      	str	r3, [r0, #4]
 8001a46:	6083      	str	r3, [r0, #8]
 8001a48:	60c3      	str	r3, [r0, #12]
 8001a4a:	4b2d      	ldr	r3, [pc, #180]	; (8001b00 <DMA_DeInit+0xc8>)
 8001a4c:	4298      	cmp	r0, r3
 8001a4e:	d100      	bne.n	8001a52 <DMA_DeInit+0x1a>
 8001a50:	e026      	b.n	8001aa0 <DMA_DeInit+0x68>
 8001a52:	4b2c      	ldr	r3, [pc, #176]	; (8001b04 <DMA_DeInit+0xcc>)
 8001a54:	4298      	cmp	r0, r3
 8001a56:	d100      	bne.n	8001a5a <DMA_DeInit+0x22>
 8001a58:	e02c      	b.n	8001ab4 <DMA_DeInit+0x7c>
 8001a5a:	4b2b      	ldr	r3, [pc, #172]	; (8001b08 <DMA_DeInit+0xd0>)
 8001a5c:	4298      	cmp	r0, r3
 8001a5e:	d100      	bne.n	8001a62 <DMA_DeInit+0x2a>
 8001a60:	e032      	b.n	8001ac8 <DMA_DeInit+0x90>
 8001a62:	4b2a      	ldr	r3, [pc, #168]	; (8001b0c <DMA_DeInit+0xd4>)
 8001a64:	4298      	cmp	r0, r3
 8001a66:	d100      	bne.n	8001a6a <DMA_DeInit+0x32>
 8001a68:	e038      	b.n	8001adc <DMA_DeInit+0xa4>
 8001a6a:	4b29      	ldr	r3, [pc, #164]	; (8001b10 <DMA_DeInit+0xd8>)
 8001a6c:	4298      	cmp	r0, r3
 8001a6e:	d100      	bne.n	8001a72 <DMA_DeInit+0x3a>
 8001a70:	e03e      	b.n	8001af0 <DMA_DeInit+0xb8>
 8001a72:	4b28      	ldr	r3, [pc, #160]	; (8001b14 <DMA_DeInit+0xdc>)
 8001a74:	4298      	cmp	r0, r3
 8001a76:	d106      	bne.n	8001a86 <DMA_DeInit+0x4e>
 8001a78:	f853 2c68 	ldr.w	r2, [r3, #-104]
 8001a7c:	f442 0270 	orr.w	r2, r2, #15728640	; 0xf00000
 8001a80:	f843 2c68 	str.w	r2, [r3, #-104]
 8001a84:	4770      	bx	lr
 8001a86:	4b24      	ldr	r3, [pc, #144]	; (8001b18 <DMA_DeInit+0xe0>)
 8001a88:	4298      	cmp	r0, r3
 8001a8a:	d106      	bne.n	8001a9a <DMA_DeInit+0x62>
 8001a8c:	f853 2c7c 	ldr.w	r2, [r3, #-124]
 8001a90:	f042 6270 	orr.w	r2, r2, #251658240	; 0xf000000
 8001a94:	f843 2c7c 	str.w	r2, [r3, #-124]
 8001a98:	4770      	bx	lr
 8001a9a:	4b20      	ldr	r3, [pc, #128]	; (8001b1c <DMA_DeInit+0xe4>)
 8001a9c:	4298      	cmp	r0, r3
 8001a9e:	d106      	bne.n	8001aae <DMA_DeInit+0x76>
 8001aa0:	f853 2c04 	ldr.w	r2, [r3, #-4]
 8001aa4:	f042 020f 	orr.w	r2, r2, #15
 8001aa8:	f843 2c04 	str.w	r2, [r3, #-4]
 8001aac:	4770      	bx	lr
 8001aae:	4b1c      	ldr	r3, [pc, #112]	; (8001b20 <DMA_DeInit+0xe8>)
 8001ab0:	4298      	cmp	r0, r3
 8001ab2:	d106      	bne.n	8001ac2 <DMA_DeInit+0x8a>
 8001ab4:	f853 2c18 	ldr.w	r2, [r3, #-24]
 8001ab8:	f042 02f0 	orr.w	r2, r2, #240	; 0xf0
 8001abc:	f843 2c18 	str.w	r2, [r3, #-24]
 8001ac0:	4770      	bx	lr
 8001ac2:	4b18      	ldr	r3, [pc, #96]	; (8001b24 <DMA_DeInit+0xec>)
 8001ac4:	4298      	cmp	r0, r3
 8001ac6:	d106      	bne.n	8001ad6 <DMA_DeInit+0x9e>
 8001ac8:	f853 2c2c 	ldr.w	r2, [r3, #-44]
 8001acc:	f442 6270 	orr.w	r2, r2, #3840	; 0xf00
 8001ad0:	f843 2c2c 	str.w	r2, [r3, #-44]
 8001ad4:	4770      	bx	lr
 8001ad6:	4b14      	ldr	r3, [pc, #80]	; (8001b28 <DMA_DeInit+0xf0>)
 8001ad8:	4298      	cmp	r0, r3
 8001ada:	d106      	bne.n	8001aea <DMA_DeInit+0xb2>
 8001adc:	f853 2c40 	ldr.w	r2, [r3, #-64]
 8001ae0:	f442 4270 	orr.w	r2, r2, #61440	; 0xf000
 8001ae4:	f843 2c40 	str.w	r2, [r3, #-64]
 8001ae8:	4770      	bx	lr
 8001aea:	4b10      	ldr	r3, [pc, #64]	; (8001b2c <DMA_DeInit+0xf4>)
 8001aec:	4298      	cmp	r0, r3
 8001aee:	d105      	bne.n	8001afc <DMA_DeInit+0xc4>
 8001af0:	f853 2c54 	ldr.w	r2, [r3, #-84]
 8001af4:	f442 2270 	orr.w	r2, r2, #983040	; 0xf0000
 8001af8:	f843 2c54 	str.w	r2, [r3, #-84]
 8001afc:	4770      	bx	lr
 8001afe:	bf00      	nop
 8001b00:	40020008 	.word	0x40020008
 8001b04:	4002001c 	.word	0x4002001c
 8001b08:	40020030 	.word	0x40020030
 8001b0c:	40020044 	.word	0x40020044
 8001b10:	40020058 	.word	0x40020058
 8001b14:	4002006c 	.word	0x4002006c
 8001b18:	40020080 	.word	0x40020080
 8001b1c:	40020408 	.word	0x40020408
 8001b20:	4002041c 	.word	0x4002041c
 8001b24:	40020430 	.word	0x40020430
 8001b28:	40020444 	.word	0x40020444
 8001b2c:	40020458 	.word	0x40020458

08001b30 <DMA_Init>:
 8001b30:	b570      	push	{r4, r5, r6, lr}
 8001b32:	688c      	ldr	r4, [r1, #8]
 8001b34:	6a0d      	ldr	r5, [r1, #32]
 8001b36:	6806      	ldr	r6, [r0, #0]
 8001b38:	ea45 0204 	orr.w	r2, r5, r4
 8001b3c:	690c      	ldr	r4, [r1, #16]
 8001b3e:	6a8b      	ldr	r3, [r1, #40]	; 0x28
 8001b40:	4322      	orrs	r2, r4
 8001b42:	694c      	ldr	r4, [r1, #20]
 8001b44:	f426 46ff 	bic.w	r6, r6, #32640	; 0x7f80
 8001b48:	4322      	orrs	r2, r4
 8001b4a:	698c      	ldr	r4, [r1, #24]
 8001b4c:	f026 0670 	bic.w	r6, r6, #112	; 0x70
 8001b50:	4322      	orrs	r2, r4
 8001b52:	69cc      	ldr	r4, [r1, #28]
 8001b54:	4314      	orrs	r4, r2
 8001b56:	6a4a      	ldr	r2, [r1, #36]	; 0x24
 8001b58:	4322      	orrs	r2, r4
 8001b5a:	4313      	orrs	r3, r2
 8001b5c:	4333      	orrs	r3, r6
 8001b5e:	6003      	str	r3, [r0, #0]
 8001b60:	68cb      	ldr	r3, [r1, #12]
 8001b62:	6043      	str	r3, [r0, #4]
 8001b64:	680b      	ldr	r3, [r1, #0]
 8001b66:	6083      	str	r3, [r0, #8]
 8001b68:	684b      	ldr	r3, [r1, #4]
 8001b6a:	60c3      	str	r3, [r0, #12]
 8001b6c:	bd70      	pop	{r4, r5, r6, pc}

08001b6e <DMA_StructInit>:
 8001b6e:	2300      	movs	r3, #0
 8001b70:	6003      	str	r3, [r0, #0]
 8001b72:	6043      	str	r3, [r0, #4]
 8001b74:	6083      	str	r3, [r0, #8]
 8001b76:	60c3      	str	r3, [r0, #12]
 8001b78:	6103      	str	r3, [r0, #16]
 8001b7a:	6143      	str	r3, [r0, #20]
 8001b7c:	6183      	str	r3, [r0, #24]
 8001b7e:	61c3      	str	r3, [r0, #28]
 8001b80:	6203      	str	r3, [r0, #32]
 8001b82:	6243      	str	r3, [r0, #36]	; 0x24
 8001b84:	6283      	str	r3, [r0, #40]	; 0x28
 8001b86:	4770      	bx	lr

08001b88 <DMA_Cmd>:
 8001b88:	6803      	ldr	r3, [r0, #0]
 8001b8a:	b111      	cbz	r1, 8001b92 <DMA_Cmd+0xa>
 8001b8c:	f043 0301 	orr.w	r3, r3, #1
 8001b90:	e001      	b.n	8001b96 <DMA_Cmd+0xe>
 8001b92:	f023 0301 	bic.w	r3, r3, #1
 8001b96:	6003      	str	r3, [r0, #0]
 8001b98:	4770      	bx	lr

08001b9a <DMA_ITConfig>:
 8001b9a:	6803      	ldr	r3, [r0, #0]
 8001b9c:	b10a      	cbz	r2, 8001ba2 <DMA_ITConfig+0x8>
 8001b9e:	4319      	orrs	r1, r3
 8001ba0:	e001      	b.n	8001ba6 <DMA_ITConfig+0xc>
 8001ba2:	ea23 0101 	bic.w	r1, r3, r1
 8001ba6:	6001      	str	r1, [r0, #0]
 8001ba8:	4770      	bx	lr

08001baa <DMA_GetCurrDataCounter>:
 8001baa:	6840      	ldr	r0, [r0, #4]
 8001bac:	b280      	uxth	r0, r0
 8001bae:	4770      	bx	lr

08001bb0 <DMA_GetFlagStatus>:
 8001bb0:	00c3      	lsls	r3, r0, #3
 8001bb2:	bf4c      	ite	mi
 8001bb4:	4b03      	ldrmi	r3, [pc, #12]	; (8001bc4 <DMA_GetFlagStatus+0x14>)
 8001bb6:	4b04      	ldrpl	r3, [pc, #16]	; (8001bc8 <DMA_GetFlagStatus+0x18>)
 8001bb8:	681b      	ldr	r3, [r3, #0]
 8001bba:	4203      	tst	r3, r0
 8001bbc:	bf0c      	ite	eq
 8001bbe:	2000      	moveq	r0, #0
 8001bc0:	2001      	movne	r0, #1
 8001bc2:	4770      	bx	lr
 8001bc4:	40020400 	.word	0x40020400
 8001bc8:	40020000 	.word	0x40020000

08001bcc <DMA_ClearFlag>:
 8001bcc:	00c2      	lsls	r2, r0, #3
 8001bce:	bf4c      	ite	mi
 8001bd0:	4b01      	ldrmi	r3, [pc, #4]	; (8001bd8 <DMA_ClearFlag+0xc>)
 8001bd2:	4b02      	ldrpl	r3, [pc, #8]	; (8001bdc <DMA_ClearFlag+0x10>)
 8001bd4:	6058      	str	r0, [r3, #4]
 8001bd6:	4770      	bx	lr
 8001bd8:	40020400 	.word	0x40020400
 8001bdc:	40020000 	.word	0x40020000

08001be0 <DMA_GetITStatus>:
 8001be0:	00c1      	lsls	r1, r0, #3
 8001be2:	bf4c      	ite	mi
 8001be4:	4b03      	ldrmi	r3, [pc, #12]	; (8001bf4 <DMA_GetITStatus+0x14>)
 8001be6:	4b04      	ldrpl	r3, [pc, #16]	; (8001bf8 <DMA_GetITStatus+0x18>)
 8001be8:	681b      	ldr	r3, [r3, #0]
 8001bea:	4203      	tst	r3, r0
 8001bec:	bf0c      	ite	eq
 8001bee:	2000      	moveq	r0, #0
 8001bf0:	2001      	movne	r0, #1
 8001bf2:	4770      	bx	lr
 8001bf4:	40020400 	.word	0x40020400
 8001bf8:	40020000 	.word	0x40020000

08001bfc <DMA_ClearITPendingBit>:
 8001bfc:	00c3      	lsls	r3, r0, #3
 8001bfe:	bf4c      	ite	mi
 8001c00:	4b01      	ldrmi	r3, [pc, #4]	; (8001c08 <DMA_ClearITPendingBit+0xc>)
 8001c02:	4b02      	ldrpl	r3, [pc, #8]	; (8001c0c <DMA_ClearITPendingBit+0x10>)
 8001c04:	6058      	str	r0, [r3, #4]
 8001c06:	4770      	bx	lr
 8001c08:	40020400 	.word	0x40020400
 8001c0c:	40020000 	.word	0x40020000

08001c10 <EXTI_DeInit>:
 8001c10:	4b04      	ldr	r3, [pc, #16]	; (8001c24 <EXTI_DeInit+0x14>)
 8001c12:	2200      	movs	r2, #0
 8001c14:	601a      	str	r2, [r3, #0]
 8001c16:	605a      	str	r2, [r3, #4]
 8001c18:	609a      	str	r2, [r3, #8]
 8001c1a:	60da      	str	r2, [r3, #12]
 8001c1c:	4a02      	ldr	r2, [pc, #8]	; (8001c28 <EXTI_DeInit+0x18>)
 8001c1e:	615a      	str	r2, [r3, #20]
 8001c20:	4770      	bx	lr
 8001c22:	bf00      	nop
 8001c24:	40010400 	.word	0x40010400
 8001c28:	000fffff 	.word	0x000fffff

08001c2c <EXTI_Init>:
 8001c2c:	7983      	ldrb	r3, [r0, #6]
 8001c2e:	b510      	push	{r4, lr}
 8001c30:	2b00      	cmp	r3, #0
 8001c32:	d029      	beq.n	8001c88 <EXTI_Init+0x5c>
 8001c34:	4b1a      	ldr	r3, [pc, #104]	; (8001ca0 <EXTI_Init+0x74>)
 8001c36:	6801      	ldr	r1, [r0, #0]
 8001c38:	681c      	ldr	r4, [r3, #0]
 8001c3a:	43ca      	mvns	r2, r1
 8001c3c:	4014      	ands	r4, r2
 8001c3e:	601c      	str	r4, [r3, #0]
 8001c40:	685c      	ldr	r4, [r3, #4]
 8001c42:	4022      	ands	r2, r4
 8001c44:	605a      	str	r2, [r3, #4]
 8001c46:	7902      	ldrb	r2, [r0, #4]
 8001c48:	f102 4280 	add.w	r2, r2, #1073741824	; 0x40000000
 8001c4c:	f502 3282 	add.w	r2, r2, #66560	; 0x10400
 8001c50:	6814      	ldr	r4, [r2, #0]
 8001c52:	4321      	orrs	r1, r4
 8001c54:	6011      	str	r1, [r2, #0]
 8001c56:	6802      	ldr	r2, [r0, #0]
 8001c58:	689c      	ldr	r4, [r3, #8]
 8001c5a:	43d1      	mvns	r1, r2
 8001c5c:	400c      	ands	r4, r1
 8001c5e:	609c      	str	r4, [r3, #8]
 8001c60:	68dc      	ldr	r4, [r3, #12]
 8001c62:	4021      	ands	r1, r4
 8001c64:	60d9      	str	r1, [r3, #12]
 8001c66:	7941      	ldrb	r1, [r0, #5]
 8001c68:	2910      	cmp	r1, #16
 8001c6a:	d106      	bne.n	8001c7a <EXTI_Init+0x4e>
 8001c6c:	6899      	ldr	r1, [r3, #8]
 8001c6e:	4311      	orrs	r1, r2
 8001c70:	6099      	str	r1, [r3, #8]
 8001c72:	68d9      	ldr	r1, [r3, #12]
 8001c74:	430a      	orrs	r2, r1
 8001c76:	60da      	str	r2, [r3, #12]
 8001c78:	bd10      	pop	{r4, pc}
 8001c7a:	f101 4380 	add.w	r3, r1, #1073741824	; 0x40000000
 8001c7e:	f503 3382 	add.w	r3, r3, #66560	; 0x10400
 8001c82:	6819      	ldr	r1, [r3, #0]
 8001c84:	430a      	orrs	r2, r1
 8001c86:	e008      	b.n	8001c9a <EXTI_Init+0x6e>
 8001c88:	7903      	ldrb	r3, [r0, #4]
 8001c8a:	6801      	ldr	r1, [r0, #0]
 8001c8c:	f103 4380 	add.w	r3, r3, #1073741824	; 0x40000000
 8001c90:	f503 3382 	add.w	r3, r3, #66560	; 0x10400
 8001c94:	681a      	ldr	r2, [r3, #0]
 8001c96:	ea22 0201 	bic.w	r2, r2, r1
 8001c9a:	601a      	str	r2, [r3, #0]
 8001c9c:	bd10      	pop	{r4, pc}
 8001c9e:	bf00      	nop
 8001ca0:	40010400 	.word	0x40010400

08001ca4 <EXTI_StructInit>:
 8001ca4:	2300      	movs	r3, #0
 8001ca6:	220c      	movs	r2, #12
 8001ca8:	6003      	str	r3, [r0, #0]
 8001caa:	7103      	strb	r3, [r0, #4]
 8001cac:	7142      	strb	r2, [r0, #5]
 8001cae:	7183      	strb	r3, [r0, #6]
 8001cb0:	4770      	bx	lr

08001cb2 <EXTI_GenerateSWInterrupt>:
 8001cb2:	4b02      	ldr	r3, [pc, #8]	; (8001cbc <EXTI_GenerateSWInterrupt+0xa>)
 8001cb4:	691a      	ldr	r2, [r3, #16]
 8001cb6:	4310      	orrs	r0, r2
 8001cb8:	6118      	str	r0, [r3, #16]
 8001cba:	4770      	bx	lr
 8001cbc:	40010400 	.word	0x40010400

08001cc0 <EXTI_GetFlagStatus>:
 8001cc0:	4b03      	ldr	r3, [pc, #12]	; (8001cd0 <EXTI_GetFlagStatus+0x10>)
 8001cc2:	695b      	ldr	r3, [r3, #20]
 8001cc4:	4218      	tst	r0, r3
 8001cc6:	bf0c      	ite	eq
 8001cc8:	2000      	moveq	r0, #0
 8001cca:	2001      	movne	r0, #1
 8001ccc:	4770      	bx	lr
 8001cce:	bf00      	nop
 8001cd0:	40010400 	.word	0x40010400

08001cd4 <EXTI_ClearFlag>:
 8001cd4:	4b01      	ldr	r3, [pc, #4]	; (8001cdc <EXTI_ClearFlag+0x8>)
 8001cd6:	6158      	str	r0, [r3, #20]
 8001cd8:	4770      	bx	lr
 8001cda:	bf00      	nop
 8001cdc:	40010400 	.word	0x40010400

08001ce0 <EXTI_GetITStatus>:
 8001ce0:	4b05      	ldr	r3, [pc, #20]	; (8001cf8 <EXTI_GetITStatus+0x18>)
 8001ce2:	681a      	ldr	r2, [r3, #0]
 8001ce4:	695b      	ldr	r3, [r3, #20]
 8001ce6:	4003      	ands	r3, r0
 8001ce8:	d004      	beq.n	8001cf4 <EXTI_GetITStatus+0x14>
 8001cea:	4210      	tst	r0, r2
 8001cec:	bf0c      	ite	eq
 8001cee:	2000      	moveq	r0, #0
 8001cf0:	2001      	movne	r0, #1
 8001cf2:	4770      	bx	lr
 8001cf4:	4618      	mov	r0, r3
 8001cf6:	4770      	bx	lr
 8001cf8:	40010400 	.word	0x40010400

08001cfc <EXTI_ClearITPendingBit>:
 8001cfc:	4b01      	ldr	r3, [pc, #4]	; (8001d04 <EXTI_ClearITPendingBit+0x8>)
 8001cfe:	6158      	str	r0, [r3, #20]
 8001d00:	4770      	bx	lr
 8001d02:	bf00      	nop
 8001d04:	40010400 	.word	0x40010400

08001d08 <FLASH_SetLatency>:
 8001d08:	4b03      	ldr	r3, [pc, #12]	; (8001d18 <FLASH_SetLatency+0x10>)
 8001d0a:	681a      	ldr	r2, [r3, #0]
 8001d0c:	f002 0238 	and.w	r2, r2, #56	; 0x38
 8001d10:	4310      	orrs	r0, r2
 8001d12:	6018      	str	r0, [r3, #0]
 8001d14:	4770      	bx	lr
 8001d16:	bf00      	nop
 8001d18:	40022000 	.word	0x40022000

08001d1c <FLASH_HalfCycleAccessCmd>:
 8001d1c:	4b04      	ldr	r3, [pc, #16]	; (8001d30 <FLASH_HalfCycleAccessCmd+0x14>)
 8001d1e:	681a      	ldr	r2, [r3, #0]
 8001d20:	f022 0208 	bic.w	r2, r2, #8
 8001d24:	601a      	str	r2, [r3, #0]
 8001d26:	681a      	ldr	r2, [r3, #0]
 8001d28:	4310      	orrs	r0, r2
 8001d2a:	6018      	str	r0, [r3, #0]
 8001d2c:	4770      	bx	lr
 8001d2e:	bf00      	nop
 8001d30:	40022000 	.word	0x40022000

08001d34 <FLASH_PrefetchBufferCmd>:
 8001d34:	4b04      	ldr	r3, [pc, #16]	; (8001d48 <FLASH_PrefetchBufferCmd+0x14>)
 8001d36:	681a      	ldr	r2, [r3, #0]
 8001d38:	f022 0210 	bic.w	r2, r2, #16
 8001d3c:	601a      	str	r2, [r3, #0]
 8001d3e:	681a      	ldr	r2, [r3, #0]
 8001d40:	4310      	orrs	r0, r2
 8001d42:	6018      	str	r0, [r3, #0]
 8001d44:	4770      	bx	lr
 8001d46:	bf00      	nop
 8001d48:	40022000 	.word	0x40022000

08001d4c <FLASH_Unlock>:
 8001d4c:	4b03      	ldr	r3, [pc, #12]	; (8001d5c <FLASH_Unlock+0x10>)
 8001d4e:	4a04      	ldr	r2, [pc, #16]	; (8001d60 <FLASH_Unlock+0x14>)
 8001d50:	605a      	str	r2, [r3, #4]
 8001d52:	f102 3288 	add.w	r2, r2, #2290649224	; 0x88888888
 8001d56:	605a      	str	r2, [r3, #4]
 8001d58:	4770      	bx	lr
 8001d5a:	bf00      	nop
 8001d5c:	40022000 	.word	0x40022000
 8001d60:	45670123 	.word	0x45670123

08001d64 <FLASH_UnlockBank1>:
 8001d64:	4b03      	ldr	r3, [pc, #12]	; (8001d74 <FLASH_UnlockBank1+0x10>)
 8001d66:	4a04      	ldr	r2, [pc, #16]	; (8001d78 <FLASH_UnlockBank1+0x14>)
 8001d68:	605a      	str	r2, [r3, #4]
 8001d6a:	f102 3288 	add.w	r2, r2, #2290649224	; 0x88888888
 8001d6e:	605a      	str	r2, [r3, #4]
 8001d70:	4770      	bx	lr
 8001d72:	bf00      	nop
 8001d74:	40022000 	.word	0x40022000
 8001d78:	45670123 	.word	0x45670123

08001d7c <FLASH_Lock>:
 8001d7c:	4b02      	ldr	r3, [pc, #8]	; (8001d88 <FLASH_Lock+0xc>)
 8001d7e:	691a      	ldr	r2, [r3, #16]
 8001d80:	f042 0280 	orr.w	r2, r2, #128	; 0x80
 8001d84:	611a      	str	r2, [r3, #16]
 8001d86:	4770      	bx	lr
 8001d88:	40022000 	.word	0x40022000

08001d8c <FLASH_LockBank1>:
 8001d8c:	4b02      	ldr	r3, [pc, #8]	; (8001d98 <FLASH_LockBank1+0xc>)
 8001d8e:	691a      	ldr	r2, [r3, #16]
 8001d90:	f042 0280 	orr.w	r2, r2, #128	; 0x80
 8001d94:	611a      	str	r2, [r3, #16]
 8001d96:	4770      	bx	lr
 8001d98:	40022000 	.word	0x40022000

08001d9c <FLASH_GetUserOptionByte>:
 8001d9c:	4b01      	ldr	r3, [pc, #4]	; (8001da4 <FLASH_GetUserOptionByte+0x8>)
 8001d9e:	69d8      	ldr	r0, [r3, #28]
 8001da0:	0880      	lsrs	r0, r0, #2
 8001da2:	4770      	bx	lr
 8001da4:	40022000 	.word	0x40022000

08001da8 <FLASH_GetWriteProtectionOptionByte>:
 8001da8:	4b01      	ldr	r3, [pc, #4]	; (8001db0 <FLASH_GetWriteProtectionOptionByte+0x8>)
 8001daa:	6a18      	ldr	r0, [r3, #32]
 8001dac:	4770      	bx	lr
 8001dae:	bf00      	nop
 8001db0:	40022000 	.word	0x40022000

08001db4 <FLASH_GetReadOutProtectionStatus>:
 8001db4:	4b02      	ldr	r3, [pc, #8]	; (8001dc0 <FLASH_GetReadOutProtectionStatus+0xc>)
 8001db6:	69d8      	ldr	r0, [r3, #28]
 8001db8:	f3c0 0040 	ubfx	r0, r0, #1, #1
 8001dbc:	4770      	bx	lr
 8001dbe:	bf00      	nop
 8001dc0:	40022000 	.word	0x40022000

08001dc4 <FLASH_GetPrefetchBufferStatus>:
 8001dc4:	4b02      	ldr	r3, [pc, #8]	; (8001dd0 <FLASH_GetPrefetchBufferStatus+0xc>)
 8001dc6:	6818      	ldr	r0, [r3, #0]
 8001dc8:	f3c0 1040 	ubfx	r0, r0, #5, #1
 8001dcc:	4770      	bx	lr
 8001dce:	bf00      	nop
 8001dd0:	40022000 	.word	0x40022000

08001dd4 <FLASH_ITConfig>:
 8001dd4:	4b04      	ldr	r3, [pc, #16]	; (8001de8 <FLASH_ITConfig+0x14>)
 8001dd6:	691a      	ldr	r2, [r3, #16]
 8001dd8:	b109      	cbz	r1, 8001dde <FLASH_ITConfig+0xa>
 8001dda:	4310      	orrs	r0, r2
 8001ddc:	e001      	b.n	8001de2 <FLASH_ITConfig+0xe>
 8001dde:	ea22 0000 	bic.w	r0, r2, r0
 8001de2:	6118      	str	r0, [r3, #16]
 8001de4:	4770      	bx	lr
 8001de6:	bf00      	nop
 8001de8:	40022000 	.word	0x40022000

08001dec <FLASH_GetFlagStatus>:
 8001dec:	2801      	cmp	r0, #1
 8001dee:	4b06      	ldr	r3, [pc, #24]	; (8001e08 <FLASH_GetFlagStatus+0x1c>)
 8001df0:	d103      	bne.n	8001dfa <FLASH_GetFlagStatus+0xe>
 8001df2:	69d8      	ldr	r0, [r3, #28]
 8001df4:	f000 0001 	and.w	r0, r0, #1
 8001df8:	4770      	bx	lr
 8001dfa:	68db      	ldr	r3, [r3, #12]
 8001dfc:	4218      	tst	r0, r3
 8001dfe:	bf0c      	ite	eq
 8001e00:	2000      	moveq	r0, #0
 8001e02:	2001      	movne	r0, #1
 8001e04:	4770      	bx	lr
 8001e06:	bf00      	nop
 8001e08:	40022000 	.word	0x40022000

08001e0c <FLASH_ClearFlag>:
 8001e0c:	4b01      	ldr	r3, [pc, #4]	; (8001e14 <FLASH_ClearFlag+0x8>)
 8001e0e:	60d8      	str	r0, [r3, #12]
 8001e10:	4770      	bx	lr
 8001e12:	bf00      	nop
 8001e14:	40022000 	.word	0x40022000

08001e18 <FLASH_GetStatus>:
 8001e18:	4b08      	ldr	r3, [pc, #32]	; (8001e3c <FLASH_GetStatus+0x24>)
 8001e1a:	68da      	ldr	r2, [r3, #12]
 8001e1c:	07d1      	lsls	r1, r2, #31
 8001e1e:	d409      	bmi.n	8001e34 <FLASH_GetStatus+0x1c>
 8001e20:	68da      	ldr	r2, [r3, #12]
 8001e22:	0752      	lsls	r2, r2, #29
 8001e24:	d408      	bmi.n	8001e38 <FLASH_GetStatus+0x20>
 8001e26:	68db      	ldr	r3, [r3, #12]
 8001e28:	f013 0f10 	tst.w	r3, #16
 8001e2c:	bf0c      	ite	eq
 8001e2e:	2004      	moveq	r0, #4
 8001e30:	2003      	movne	r0, #3
 8001e32:	4770      	bx	lr
 8001e34:	2001      	movs	r0, #1
 8001e36:	4770      	bx	lr
 8001e38:	2002      	movs	r0, #2
 8001e3a:	4770      	bx	lr
 8001e3c:	40022000 	.word	0x40022000

08001e40 <FLASH_GetBank1Status>:
 8001e40:	4b08      	ldr	r3, [pc, #32]	; (8001e64 <FLASH_GetBank1Status+0x24>)
 8001e42:	68da      	ldr	r2, [r3, #12]
 8001e44:	07d2      	lsls	r2, r2, #31
 8001e46:	d409      	bmi.n	8001e5c <FLASH_GetBank1Status+0x1c>
 8001e48:	68da      	ldr	r2, [r3, #12]
 8001e4a:	0750      	lsls	r0, r2, #29
 8001e4c:	d408      	bmi.n	8001e60 <FLASH_GetBank1Status+0x20>
 8001e4e:	68db      	ldr	r3, [r3, #12]
 8001e50:	f013 0f10 	tst.w	r3, #16
 8001e54:	bf0c      	ite	eq
 8001e56:	2004      	moveq	r0, #4
 8001e58:	2003      	movne	r0, #3
 8001e5a:	4770      	bx	lr
 8001e5c:	2001      	movs	r0, #1
 8001e5e:	4770      	bx	lr
 8001e60:	2002      	movs	r0, #2
 8001e62:	4770      	bx	lr
 8001e64:	40022000 	.word	0x40022000

08001e68 <FLASH_WaitForLastOperation>:
 8001e68:	b510      	push	{r4, lr}
 8001e6a:	4604      	mov	r4, r0
 8001e6c:	f7ff ffe8 	bl	8001e40 <FLASH_GetBank1Status>
 8001e70:	e002      	b.n	8001e78 <FLASH_WaitForLastOperation+0x10>
 8001e72:	f7ff ffe5 	bl	8001e40 <FLASH_GetBank1Status>
 8001e76:	3c01      	subs	r4, #1
 8001e78:	2801      	cmp	r0, #1
 8001e7a:	d103      	bne.n	8001e84 <FLASH_WaitForLastOperation+0x1c>
 8001e7c:	2c00      	cmp	r4, #0
 8001e7e:	d1f8      	bne.n	8001e72 <FLASH_WaitForLastOperation+0xa>
 8001e80:	2005      	movs	r0, #5
 8001e82:	bd10      	pop	{r4, pc}
 8001e84:	2c00      	cmp	r4, #0
 8001e86:	bf08      	it	eq
 8001e88:	2005      	moveq	r0, #5
 8001e8a:	bd10      	pop	{r4, pc}

08001e8c <FLASH_UserOptionByteConfig>:
 8001e8c:	b5f8      	push	{r3, r4, r5, r6, r7, lr}
 8001e8e:	4c12      	ldr	r4, [pc, #72]	; (8001ed8 <FLASH_UserOptionByteConfig+0x4c>)
 8001e90:	4b12      	ldr	r3, [pc, #72]	; (8001edc <FLASH_UserOptionByteConfig+0x50>)
 8001e92:	4605      	mov	r5, r0
 8001e94:	60a3      	str	r3, [r4, #8]
 8001e96:	f103 3388 	add.w	r3, r3, #2290649224	; 0x88888888
 8001e9a:	60a3      	str	r3, [r4, #8]
 8001e9c:	f44f 5000 	mov.w	r0, #8192	; 0x2000
 8001ea0:	460e      	mov	r6, r1
 8001ea2:	4617      	mov	r7, r2
 8001ea4:	f7ff ffe0 	bl	8001e68 <FLASH_WaitForLastOperation>
 8001ea8:	2804      	cmp	r0, #4
 8001eaa:	d114      	bne.n	8001ed6 <FLASH_UserOptionByteConfig+0x4a>
 8001eac:	6923      	ldr	r3, [r4, #16]
 8001eae:	f045 05f8 	orr.w	r5, r5, #248	; 0xf8
 8001eb2:	f043 0310 	orr.w	r3, r3, #16
 8001eb6:	6123      	str	r3, [r4, #16]
 8001eb8:	432e      	orrs	r6, r5
 8001eba:	4b09      	ldr	r3, [pc, #36]	; (8001ee0 <FLASH_UserOptionByteConfig+0x54>)
 8001ebc:	4337      	orrs	r7, r6
 8001ebe:	805f      	strh	r7, [r3, #2]
 8001ec0:	f44f 5000 	mov.w	r0, #8192	; 0x2000
 8001ec4:	f7ff ffd0 	bl	8001e68 <FLASH_WaitForLastOperation>
 8001ec8:	2805      	cmp	r0, #5
 8001eca:	d004      	beq.n	8001ed6 <FLASH_UserOptionByteConfig+0x4a>
 8001ecc:	6922      	ldr	r2, [r4, #16]
 8001ece:	f641 73ef 	movw	r3, #8175	; 0x1fef
 8001ed2:	4013      	ands	r3, r2
 8001ed4:	6123      	str	r3, [r4, #16]
 8001ed6:	bdf8      	pop	{r3, r4, r5, r6, r7, pc}
 8001ed8:	40022000 	.word	0x40022000
 8001edc:	45670123 	.word	0x45670123
 8001ee0:	1ffff800 	.word	0x1ffff800

08001ee4 <FLASH_ReadOutProtection>:
 8001ee4:	b538      	push	{r3, r4, r5, lr}
 8001ee6:	4605      	mov	r5, r0
 8001ee8:	f44f 2030 	mov.w	r0, #720896	; 0xb0000
 8001eec:	f7ff ffbc 	bl	8001e68 <FLASH_WaitForLastOperation>
 8001ef0:	2804      	cmp	r0, #4
 8001ef2:	d138      	bne.n	8001f66 <FLASH_ReadOutProtection+0x82>
 8001ef4:	4c1c      	ldr	r4, [pc, #112]	; (8001f68 <FLASH_ReadOutProtection+0x84>)
 8001ef6:	4b1d      	ldr	r3, [pc, #116]	; (8001f6c <FLASH_ReadOutProtection+0x88>)
 8001ef8:	f44f 2030 	mov.w	r0, #720896	; 0xb0000
 8001efc:	60a3      	str	r3, [r4, #8]
 8001efe:	f103 3388 	add.w	r3, r3, #2290649224	; 0x88888888
 8001f02:	60a3      	str	r3, [r4, #8]
 8001f04:	6923      	ldr	r3, [r4, #16]
 8001f06:	f043 0320 	orr.w	r3, r3, #32
 8001f0a:	6123      	str	r3, [r4, #16]
 8001f0c:	6923      	ldr	r3, [r4, #16]
 8001f0e:	f043 0340 	orr.w	r3, r3, #64	; 0x40
 8001f12:	6123      	str	r3, [r4, #16]
 8001f14:	f7ff ffa8 	bl	8001e68 <FLASH_WaitForLastOperation>
 8001f18:	2804      	cmp	r0, #4
 8001f1a:	d11d      	bne.n	8001f58 <FLASH_ReadOutProtection+0x74>
 8001f1c:	6922      	ldr	r2, [r4, #16]
 8001f1e:	f641 73df 	movw	r3, #8159	; 0x1fdf
 8001f22:	4013      	ands	r3, r2
 8001f24:	6123      	str	r3, [r4, #16]
 8001f26:	6923      	ldr	r3, [r4, #16]
 8001f28:	f043 0310 	orr.w	r3, r3, #16
 8001f2c:	6123      	str	r3, [r4, #16]
 8001f2e:	4b10      	ldr	r3, [pc, #64]	; (8001f70 <FLASH_ReadOutProtection+0x8c>)
 8001f30:	b10d      	cbz	r5, 8001f36 <FLASH_ReadOutProtection+0x52>
 8001f32:	2200      	movs	r2, #0
 8001f34:	e000      	b.n	8001f38 <FLASH_ReadOutProtection+0x54>
 8001f36:	22a5      	movs	r2, #165	; 0xa5
 8001f38:	801a      	strh	r2, [r3, #0]
 8001f3a:	f44f 2030 	mov.w	r0, #720896	; 0xb0000
 8001f3e:	f7ff ff93 	bl	8001e68 <FLASH_WaitForLastOperation>
 8001f42:	2805      	cmp	r0, #5
 8001f44:	d101      	bne.n	8001f4a <FLASH_ReadOutProtection+0x66>
 8001f46:	2005      	movs	r0, #5
 8001f48:	bd38      	pop	{r3, r4, r5, pc}
 8001f4a:	4a07      	ldr	r2, [pc, #28]	; (8001f68 <FLASH_ReadOutProtection+0x84>)
 8001f4c:	f641 73ef 	movw	r3, #8175	; 0x1fef
 8001f50:	6911      	ldr	r1, [r2, #16]
 8001f52:	400b      	ands	r3, r1
 8001f54:	6113      	str	r3, [r2, #16]
 8001f56:	bd38      	pop	{r3, r4, r5, pc}
 8001f58:	2805      	cmp	r0, #5
 8001f5a:	d0f4      	beq.n	8001f46 <FLASH_ReadOutProtection+0x62>
 8001f5c:	6922      	ldr	r2, [r4, #16]
 8001f5e:	f641 73df 	movw	r3, #8159	; 0x1fdf
 8001f62:	4013      	ands	r3, r2
 8001f64:	6123      	str	r3, [r4, #16]
 8001f66:	bd38      	pop	{r3, r4, r5, pc}
 8001f68:	40022000 	.word	0x40022000
 8001f6c:	45670123 	.word	0x45670123
 8001f70:	1ffff800 	.word	0x1ffff800

08001f74 <FLASH_EnableWriteProtection>:
 8001f74:	b510      	push	{r4, lr}
 8001f76:	4604      	mov	r4, r0
 8001f78:	f44f 5000 	mov.w	r0, #8192	; 0x2000
 8001f7c:	f7ff ff74 	bl	8001e68 <FLASH_WaitForLastOperation>
 8001f80:	2804      	cmp	r0, #4
 8001f82:	d145      	bne.n	8002010 <FLASH_EnableWriteProtection+0x9c>
 8001f84:	4b23      	ldr	r3, [pc, #140]	; (8002014 <FLASH_EnableWriteProtection+0xa0>)
 8001f86:	4924      	ldr	r1, [pc, #144]	; (8002018 <FLASH_EnableWriteProtection+0xa4>)
 8001f88:	43e4      	mvns	r4, r4
 8001f8a:	6099      	str	r1, [r3, #8]
 8001f8c:	f101 3188 	add.w	r1, r1, #2290649224	; 0x88888888
 8001f90:	6099      	str	r1, [r3, #8]
 8001f92:	6919      	ldr	r1, [r3, #16]
 8001f94:	b2e2      	uxtb	r2, r4
 8001f96:	f041 0110 	orr.w	r1, r1, #16
 8001f9a:	2aff      	cmp	r2, #255	; 0xff
 8001f9c:	6119      	str	r1, [r3, #16]
 8001f9e:	d104      	bne.n	8001faa <FLASH_EnableWriteProtection+0x36>
 8001fa0:	f3c4 2307 	ubfx	r3, r4, #8, #8
 8001fa4:	2bff      	cmp	r3, #255	; 0xff
 8001fa6:	d10e      	bne.n	8001fc6 <FLASH_EnableWriteProtection+0x52>
 8001fa8:	e008      	b.n	8001fbc <FLASH_EnableWriteProtection+0x48>
 8001faa:	4b1c      	ldr	r3, [pc, #112]	; (800201c <FLASH_EnableWriteProtection+0xa8>)
 8001fac:	f44f 5000 	mov.w	r0, #8192	; 0x2000
 8001fb0:	811a      	strh	r2, [r3, #8]
 8001fb2:	f7ff ff59 	bl	8001e68 <FLASH_WaitForLastOperation>
 8001fb6:	2804      	cmp	r0, #4
 8001fb8:	d122      	bne.n	8002000 <FLASH_EnableWriteProtection+0x8c>
 8001fba:	e7f1      	b.n	8001fa0 <FLASH_EnableWriteProtection+0x2c>
 8001fbc:	f3c4 4307 	ubfx	r3, r4, #16, #8
 8001fc0:	2bff      	cmp	r3, #255	; 0xff
 8001fc2:	d10e      	bne.n	8001fe2 <FLASH_EnableWriteProtection+0x6e>
 8001fc4:	e008      	b.n	8001fd8 <FLASH_EnableWriteProtection+0x64>
 8001fc6:	4a15      	ldr	r2, [pc, #84]	; (800201c <FLASH_EnableWriteProtection+0xa8>)
 8001fc8:	f44f 5000 	mov.w	r0, #8192	; 0x2000
 8001fcc:	8153      	strh	r3, [r2, #10]
 8001fce:	f7ff ff4b 	bl	8001e68 <FLASH_WaitForLastOperation>
 8001fd2:	2804      	cmp	r0, #4
 8001fd4:	d0f2      	beq.n	8001fbc <FLASH_EnableWriteProtection+0x48>
 8001fd6:	e013      	b.n	8002000 <FLASH_EnableWriteProtection+0x8c>
 8001fd8:	0e24      	lsrs	r4, r4, #24
 8001fda:	2cff      	cmp	r4, #255	; 0xff
 8001fdc:	d10a      	bne.n	8001ff4 <FLASH_EnableWriteProtection+0x80>
 8001fde:	2004      	movs	r0, #4
 8001fe0:	e010      	b.n	8002004 <FLASH_EnableWriteProtection+0x90>
 8001fe2:	4a0e      	ldr	r2, [pc, #56]	; (800201c <FLASH_EnableWriteProtection+0xa8>)
 8001fe4:	f44f 5000 	mov.w	r0, #8192	; 0x2000
 8001fe8:	8193      	strh	r3, [r2, #12]
 8001fea:	f7ff ff3d 	bl	8001e68 <FLASH_WaitForLastOperation>
 8001fee:	2804      	cmp	r0, #4
 8001ff0:	d0f2      	beq.n	8001fd8 <FLASH_EnableWriteProtection+0x64>
 8001ff2:	e005      	b.n	8002000 <FLASH_EnableWriteProtection+0x8c>
 8001ff4:	4b09      	ldr	r3, [pc, #36]	; (800201c <FLASH_EnableWriteProtection+0xa8>)
 8001ff6:	f44f 5000 	mov.w	r0, #8192	; 0x2000
 8001ffa:	81dc      	strh	r4, [r3, #14]
 8001ffc:	f7ff ff34 	bl	8001e68 <FLASH_WaitForLastOperation>
 8002000:	2805      	cmp	r0, #5
 8002002:	d005      	beq.n	8002010 <FLASH_EnableWriteProtection+0x9c>
 8002004:	4a03      	ldr	r2, [pc, #12]	; (8002014 <FLASH_EnableWriteProtection+0xa0>)
 8002006:	f641 73ef 	movw	r3, #8175	; 0x1fef
 800200a:	6911      	ldr	r1, [r2, #16]
 800200c:	400b      	ands	r3, r1
 800200e:	6113      	str	r3, [r2, #16]
 8002010:	bd10      	pop	{r4, pc}
 8002012:	bf00      	nop
 8002014:	40022000 	.word	0x40022000
 8002018:	45670123 	.word	0x45670123
 800201c:	1ffff800 	.word	0x1ffff800

08002020 <FLASH_ProgramOptionByteData>:
 8002020:	b570      	push	{r4, r5, r6, lr}
 8002022:	4605      	mov	r5, r0
 8002024:	f44f 5000 	mov.w	r0, #8192	; 0x2000
 8002028:	460e      	mov	r6, r1
 800202a:	f7ff ff1d 	bl	8001e68 <FLASH_WaitForLastOperation>
 800202e:	2804      	cmp	r0, #4
 8002030:	d115      	bne.n	800205e <FLASH_ProgramOptionByteData+0x3e>
 8002032:	4c0b      	ldr	r4, [pc, #44]	; (8002060 <FLASH_ProgramOptionByteData+0x40>)
 8002034:	4b0b      	ldr	r3, [pc, #44]	; (8002064 <FLASH_ProgramOptionByteData+0x44>)
 8002036:	f44f 5000 	mov.w	r0, #8192	; 0x2000
 800203a:	60a3      	str	r3, [r4, #8]
 800203c:	f103 3388 	add.w	r3, r3, #2290649224	; 0x88888888
 8002040:	60a3      	str	r3, [r4, #8]
 8002042:	6923      	ldr	r3, [r4, #16]
 8002044:	f043 0310 	orr.w	r3, r3, #16
 8002048:	6123      	str	r3, [r4, #16]
 800204a:	802e      	strh	r6, [r5, #0]
 800204c:	f7ff ff0c 	bl	8001e68 <FLASH_WaitForLastOperation>
 8002050:	2805      	cmp	r0, #5
 8002052:	d004      	beq.n	800205e <FLASH_ProgramOptionByteData+0x3e>
 8002054:	6922      	ldr	r2, [r4, #16]
 8002056:	f641 73ef 	movw	r3, #8175	; 0x1fef
 800205a:	4013      	ands	r3, r2
 800205c:	6123      	str	r3, [r4, #16]
 800205e:	bd70      	pop	{r4, r5, r6, pc}
 8002060:	40022000 	.word	0x40022000
 8002064:	45670123 	.word	0x45670123

08002068 <FLASH_ProgramHalfWord>:
 8002068:	b570      	push	{r4, r5, r6, lr}
 800206a:	4605      	mov	r5, r0
 800206c:	f44f 5000 	mov.w	r0, #8192	; 0x2000
 8002070:	460e      	mov	r6, r1
 8002072:	f7ff fef9 	bl	8001e68 <FLASH_WaitForLastOperation>
 8002076:	2804      	cmp	r0, #4
 8002078:	d110      	bne.n	800209c <FLASH_ProgramHalfWord+0x34>
 800207a:	4c09      	ldr	r4, [pc, #36]	; (80020a0 <FLASH_ProgramHalfWord+0x38>)
 800207c:	f44f 5000 	mov.w	r0, #8192	; 0x2000
 8002080:	6923      	ldr	r3, [r4, #16]
 8002082:	f043 0301 	orr.w	r3, r3, #1
 8002086:	6123      	str	r3, [r4, #16]
 8002088:	802e      	strh	r6, [r5, #0]
 800208a:	f7ff feed 	bl	8001e68 <FLASH_WaitForLastOperation>
 800208e:	2805      	cmp	r0, #5
 8002090:	d004      	beq.n	800209c <FLASH_ProgramHalfWord+0x34>
 8002092:	6922      	ldr	r2, [r4, #16]
 8002094:	f641 73fe 	movw	r3, #8190	; 0x1ffe
 8002098:	4013      	ands	r3, r2
 800209a:	6123      	str	r3, [r4, #16]
 800209c:	bd70      	pop	{r4, r5, r6, pc}
 800209e:	bf00      	nop
 80020a0:	40022000 	.word	0x40022000

080020a4 <FLASH_ProgramWord>:
 80020a4:	b573      	push	{r0, r1, r4, r5, r6, lr}
 80020a6:	2300      	movs	r3, #0
 80020a8:	4606      	mov	r6, r0
 80020aa:	f44f 5000 	mov.w	r0, #8192	; 0x2000
 80020ae:	460d      	mov	r5, r1
 80020b0:	9301      	str	r3, [sp, #4]
 80020b2:	f7ff fed9 	bl	8001e68 <FLASH_WaitForLastOperation>
 80020b6:	2804      	cmp	r0, #4
 80020b8:	d11e      	bne.n	80020f8 <FLASH_ProgramWord+0x54>
 80020ba:	4c10      	ldr	r4, [pc, #64]	; (80020fc <FLASH_ProgramWord+0x58>)
 80020bc:	f44f 5000 	mov.w	r0, #8192	; 0x2000
 80020c0:	6923      	ldr	r3, [r4, #16]
 80020c2:	f043 0301 	orr.w	r3, r3, #1
 80020c6:	6123      	str	r3, [r4, #16]
 80020c8:	b2ab      	uxth	r3, r5
 80020ca:	8033      	strh	r3, [r6, #0]
 80020cc:	f7ff fecc 	bl	8001e68 <FLASH_WaitForLastOperation>
 80020d0:	2804      	cmp	r0, #4
 80020d2:	d108      	bne.n	80020e6 <FLASH_ProgramWord+0x42>
 80020d4:	3602      	adds	r6, #2
 80020d6:	9601      	str	r6, [sp, #4]
 80020d8:	9b01      	ldr	r3, [sp, #4]
 80020da:	0c2d      	lsrs	r5, r5, #16
 80020dc:	801d      	strh	r5, [r3, #0]
 80020de:	f44f 5000 	mov.w	r0, #8192	; 0x2000
 80020e2:	f7ff fec1 	bl	8001e68 <FLASH_WaitForLastOperation>
 80020e6:	2805      	cmp	r0, #5
 80020e8:	d101      	bne.n	80020ee <FLASH_ProgramWord+0x4a>
 80020ea:	2005      	movs	r0, #5
 80020ec:	e004      	b.n	80020f8 <FLASH_ProgramWord+0x54>
 80020ee:	6922      	ldr	r2, [r4, #16]
 80020f0:	f641 73fe 	movw	r3, #8190	; 0x1ffe
 80020f4:	4013      	ands	r3, r2
 80020f6:	6123      	str	r3, [r4, #16]
 80020f8:	bd7c      	pop	{r2, r3, r4, r5, r6, pc}
 80020fa:	bf00      	nop
 80020fc:	40022000 	.word	0x40022000

08002100 <FLASH_EraseOptionBytes>:
 8002100:	b538      	push	{r3, r4, r5, lr}
 8002102:	f7ff fe57 	bl	8001db4 <FLASH_GetReadOutProtectionStatus>
 8002106:	2800      	cmp	r0, #0
 8002108:	bf0c      	ite	eq
 800210a:	25a5      	moveq	r5, #165	; 0xa5
 800210c:	2500      	movne	r5, #0
 800210e:	f44f 2030 	mov.w	r0, #720896	; 0xb0000
 8002112:	f7ff fea9 	bl	8001e68 <FLASH_WaitForLastOperation>
 8002116:	2804      	cmp	r0, #4
 8002118:	d12b      	bne.n	8002172 <FLASH_EraseOptionBytes+0x72>
 800211a:	4c16      	ldr	r4, [pc, #88]	; (8002174 <FLASH_EraseOptionBytes+0x74>)
 800211c:	4b16      	ldr	r3, [pc, #88]	; (8002178 <FLASH_EraseOptionBytes+0x78>)
 800211e:	f44f 2030 	mov.w	r0, #720896	; 0xb0000
 8002122:	60a3      	str	r3, [r4, #8]
 8002124:	f103 3388 	add.w	r3, r3, #2290649224	; 0x88888888
 8002128:	60a3      	str	r3, [r4, #8]
 800212a:	6923      	ldr	r3, [r4, #16]
 800212c:	f043 0320 	orr.w	r3, r3, #32
 8002130:	6123      	str	r3, [r4, #16]
 8002132:	6923      	ldr	r3, [r4, #16]
 8002134:	f043 0340 	orr.w	r3, r3, #64	; 0x40
 8002138:	6123      	str	r3, [r4, #16]
 800213a:	f7ff fe95 	bl	8001e68 <FLASH_WaitForLastOperation>
 800213e:	2804      	cmp	r0, #4
 8002140:	d10e      	bne.n	8002160 <FLASH_EraseOptionBytes+0x60>
 8002142:	6922      	ldr	r2, [r4, #16]
 8002144:	f641 73df 	movw	r3, #8159	; 0x1fdf
 8002148:	4013      	ands	r3, r2
 800214a:	6123      	str	r3, [r4, #16]
 800214c:	6923      	ldr	r3, [r4, #16]
 800214e:	f44f 5000 	mov.w	r0, #8192	; 0x2000
 8002152:	f043 0310 	orr.w	r3, r3, #16
 8002156:	6123      	str	r3, [r4, #16]
 8002158:	4b08      	ldr	r3, [pc, #32]	; (800217c <FLASH_EraseOptionBytes+0x7c>)
 800215a:	801d      	strh	r5, [r3, #0]
 800215c:	f7ff fe84 	bl	8001e68 <FLASH_WaitForLastOperation>
 8002160:	2805      	cmp	r0, #5
 8002162:	d101      	bne.n	8002168 <FLASH_EraseOptionBytes+0x68>
 8002164:	2005      	movs	r0, #5
 8002166:	bd38      	pop	{r3, r4, r5, pc}
 8002168:	6922      	ldr	r2, [r4, #16]
 800216a:	f641 73ef 	movw	r3, #8175	; 0x1fef
 800216e:	4013      	ands	r3, r2
 8002170:	6123      	str	r3, [r4, #16]
 8002172:	bd38      	pop	{r3, r4, r5, pc}
 8002174:	40022000 	.word	0x40022000
 8002178:	45670123 	.word	0x45670123
 800217c:	1ffff800 	.word	0x1ffff800

08002180 <FLASH_EraseAllPages>:
 8002180:	b510      	push	{r4, lr}
 8002182:	f44f 2030 	mov.w	r0, #720896	; 0xb0000
 8002186:	f7ff fe6f 	bl	8001e68 <FLASH_WaitForLastOperation>
 800218a:	2804      	cmp	r0, #4
 800218c:	d113      	bne.n	80021b6 <FLASH_EraseAllPages+0x36>
 800218e:	4c0a      	ldr	r4, [pc, #40]	; (80021b8 <FLASH_EraseAllPages+0x38>)
 8002190:	f44f 2030 	mov.w	r0, #720896	; 0xb0000
 8002194:	6923      	ldr	r3, [r4, #16]
 8002196:	f043 0304 	orr.w	r3, r3, #4
 800219a:	6123      	str	r3, [r4, #16]
 800219c:	6923      	ldr	r3, [r4, #16]
 800219e:	f043 0340 	orr.w	r3, r3, #64	; 0x40
 80021a2:	6123      	str	r3, [r4, #16]
 80021a4:	f7ff fe60 	bl	8001e68 <FLASH_WaitForLastOperation>
 80021a8:	2805      	cmp	r0, #5
 80021aa:	d004      	beq.n	80021b6 <FLASH_EraseAllPages+0x36>
 80021ac:	6922      	ldr	r2, [r4, #16]
 80021ae:	f641 73fb 	movw	r3, #8187	; 0x1ffb
 80021b2:	4013      	ands	r3, r2
 80021b4:	6123      	str	r3, [r4, #16]
 80021b6:	bd10      	pop	{r4, pc}
 80021b8:	40022000 	.word	0x40022000

080021bc <FLASH_ErasePage>:
 80021bc:	b538      	push	{r3, r4, r5, lr}
 80021be:	4605      	mov	r5, r0
 80021c0:	f44f 2030 	mov.w	r0, #720896	; 0xb0000
 80021c4:	f7ff fe50 	bl	8001e68 <FLASH_WaitForLastOperation>
 80021c8:	2804      	cmp	r0, #4
 80021ca:	d114      	bne.n	80021f6 <FLASH_ErasePage+0x3a>
 80021cc:	4c0a      	ldr	r4, [pc, #40]	; (80021f8 <FLASH_ErasePage+0x3c>)
 80021ce:	f44f 2030 	mov.w	r0, #720896	; 0xb0000
 80021d2:	6923      	ldr	r3, [r4, #16]
 80021d4:	f043 0302 	orr.w	r3, r3, #2
 80021d8:	6123      	str	r3, [r4, #16]
 80021da:	6165      	str	r5, [r4, #20]
 80021dc:	6923      	ldr	r3, [r4, #16]
 80021de:	f043 0340 	orr.w	r3, r3, #64	; 0x40
 80021e2:	6123      	str	r3, [r4, #16]
 80021e4:	f7ff fe40 	bl	8001e68 <FLASH_WaitForLastOperation>
 80021e8:	2805      	cmp	r0, #5
 80021ea:	d004      	beq.n	80021f6 <FLASH_ErasePage+0x3a>
 80021ec:	6922      	ldr	r2, [r4, #16]
 80021ee:	f641 73fd 	movw	r3, #8189	; 0x1ffd
 80021f2:	4013      	ands	r3, r2
 80021f4:	6123      	str	r3, [r4, #16]
 80021f6:	bd38      	pop	{r3, r4, r5, pc}
 80021f8:	40022000 	.word	0x40022000

080021fc <FLASH_WaitForLastBank1Operation>:
 80021fc:	b510      	push	{r4, lr}
 80021fe:	4604      	mov	r4, r0
 8002200:	f7ff fe1e 	bl	8001e40 <FLASH_GetBank1Status>
 8002204:	e002      	b.n	800220c <FLASH_WaitForLastBank1Operation+0x10>
 8002206:	f7ff fe1b 	bl	8001e40 <FLASH_GetBank1Status>
 800220a:	3c01      	subs	r4, #1
 800220c:	2801      	cmp	r0, #1
 800220e:	d103      	bne.n	8002218 <FLASH_WaitForLastBank1Operation+0x1c>
 8002210:	2c00      	cmp	r4, #0
 8002212:	d1f8      	bne.n	8002206 <FLASH_WaitForLastBank1Operation+0xa>
 8002214:	2005      	movs	r0, #5
 8002216:	bd10      	pop	{r4, pc}
 8002218:	2c00      	cmp	r4, #0
 800221a:	bf08      	it	eq
 800221c:	2005      	moveq	r0, #5
 800221e:	bd10      	pop	{r4, pc}

08002220 <FLASH_EraseAllBank1Pages>:
 8002220:	b510      	push	{r4, lr}
 8002222:	f44f 2030 	mov.w	r0, #720896	; 0xb0000
 8002226:	f7ff ffe9 	bl	80021fc <FLASH_WaitForLastBank1Operation>
 800222a:	2804      	cmp	r0, #4
 800222c:	d113      	bne.n	8002256 <FLASH_EraseAllBank1Pages+0x36>
 800222e:	4c0a      	ldr	r4, [pc, #40]	; (8002258 <FLASH_EraseAllBank1Pages+0x38>)
 8002230:	f44f 2030 	mov.w	r0, #720896	; 0xb0000
 8002234:	6923      	ldr	r3, [r4, #16]
 8002236:	f043 0304 	orr.w	r3, r3, #4
 800223a:	6123      	str	r3, [r4, #16]
 800223c:	6923      	ldr	r3, [r4, #16]
 800223e:	f043 0340 	orr.w	r3, r3, #64	; 0x40
 8002242:	6123      	str	r3, [r4, #16]
 8002244:	f7ff ffda 	bl	80021fc <FLASH_WaitForLastBank1Operation>
 8002248:	2805      	cmp	r0, #5
 800224a:	d004      	beq.n	8002256 <FLASH_EraseAllBank1Pages+0x36>
 800224c:	6922      	ldr	r2, [r4, #16]
 800224e:	f641 73fb 	movw	r3, #8187	; 0x1ffb
 8002252:	4013      	ands	r3, r2
 8002254:	6123      	str	r3, [r4, #16]
 8002256:	bd10      	pop	{r4, pc}
 8002258:	40022000 	.word	0x40022000

0800225c <FSMC_NORSRAMDeInit>:
 800225c:	f04f 4320 	mov.w	r3, #2684354560	; 0xa0000000
 8002260:	b918      	cbnz	r0, 800226a <FSMC_NORSRAMDeInit+0xe>
 8002262:	f243 02db 	movw	r2, #12507	; 0x30db
 8002266:	601a      	str	r2, [r3, #0]
 8002268:	e003      	b.n	8002272 <FSMC_NORSRAMDeInit+0x16>
 800226a:	f243 02d2 	movw	r2, #12498	; 0x30d2
 800226e:	f843 2020 	str.w	r2, [r3, r0, lsl #2]
 8002272:	f06f 4370 	mvn.w	r3, #4026531840	; 0xf0000000
 8002276:	f04f 4220 	mov.w	r2, #2684354560	; 0xa0000000
 800227a:	1c41      	adds	r1, r0, #1
 800227c:	f842 3021 	str.w	r3, [r2, r1, lsl #2]
 8002280:	f502 7282 	add.w	r2, r2, #260	; 0x104
 8002284:	f842 3020 	str.w	r3, [r2, r0, lsl #2]
 8002288:	4770      	bx	lr

0800228a <FSMC_NANDDeInit>:
 800228a:	2810      	cmp	r0, #16
 800228c:	bf0c      	ite	eq
 800228e:	4b05      	ldreq	r3, [pc, #20]	; (80022a4 <FSMC_NANDDeInit+0x1a>)
 8002290:	4b05      	ldrne	r3, [pc, #20]	; (80022a8 <FSMC_NANDDeInit+0x1e>)
 8002292:	2240      	movs	r2, #64	; 0x40
 8002294:	2118      	movs	r1, #24
 8002296:	6019      	str	r1, [r3, #0]
 8002298:	605a      	str	r2, [r3, #4]
 800229a:	f04f 32fc 	mov.w	r2, #4244438268	; 0xfcfcfcfc
 800229e:	609a      	str	r2, [r3, #8]
 80022a0:	60da      	str	r2, [r3, #12]
 80022a2:	4770      	bx	lr
 80022a4:	a0000060 	.word	0xa0000060
 80022a8:	a0000080 	.word	0xa0000080

080022ac <FSMC_PCCARDDeInit>:
 80022ac:	4b05      	ldr	r3, [pc, #20]	; (80022c4 <FSMC_PCCARDDeInit+0x18>)
 80022ae:	2218      	movs	r2, #24
 80022b0:	601a      	str	r2, [r3, #0]
 80022b2:	2200      	movs	r2, #0
 80022b4:	605a      	str	r2, [r3, #4]
 80022b6:	f04f 32fc 	mov.w	r2, #4244438268	; 0xfcfcfcfc
 80022ba:	609a      	str	r2, [r3, #8]
 80022bc:	60da      	str	r2, [r3, #12]
 80022be:	611a      	str	r2, [r3, #16]
 80022c0:	4770      	bx	lr
 80022c2:	bf00      	nop
 80022c4:	a00000a0 	.word	0xa00000a0

080022c8 <FSMC_NORSRAMInit>:
 80022c8:	b570      	push	{r4, r5, r6, lr}
 80022ca:	6843      	ldr	r3, [r0, #4]
 80022cc:	6884      	ldr	r4, [r0, #8]
 80022ce:	6a81      	ldr	r1, [r0, #40]	; 0x28
 80022d0:	ea44 0503 	orr.w	r5, r4, r3
 80022d4:	68c3      	ldr	r3, [r0, #12]
 80022d6:	6802      	ldr	r2, [r0, #0]
 80022d8:	431d      	orrs	r5, r3
 80022da:	6903      	ldr	r3, [r0, #16]
 80022dc:	2c08      	cmp	r4, #8
 80022de:	ea45 0503 	orr.w	r5, r5, r3
 80022e2:	6943      	ldr	r3, [r0, #20]
 80022e4:	ea45 0503 	orr.w	r5, r5, r3
 80022e8:	6983      	ldr	r3, [r0, #24]
 80022ea:	ea45 0503 	orr.w	r5, r5, r3
 80022ee:	69c3      	ldr	r3, [r0, #28]
 80022f0:	ea45 0503 	orr.w	r5, r5, r3
 80022f4:	6a03      	ldr	r3, [r0, #32]
 80022f6:	ea45 0503 	orr.w	r5, r5, r3
 80022fa:	6a43      	ldr	r3, [r0, #36]	; 0x24
 80022fc:	ea45 0303 	orr.w	r3, r5, r3
 8002300:	ea43 0501 	orr.w	r5, r3, r1
 8002304:	6ac3      	ldr	r3, [r0, #44]	; 0x2c
 8002306:	ea45 0503 	orr.w	r5, r5, r3
 800230a:	f04f 4320 	mov.w	r3, #2684354560	; 0xa0000000
 800230e:	f843 5022 	str.w	r5, [r3, r2, lsl #2]
 8002312:	d105      	bne.n	8002320 <FSMC_NORSRAMInit+0x58>
 8002314:	f853 4022 	ldr.w	r4, [r3, r2, lsl #2]
 8002318:	f044 0440 	orr.w	r4, r4, #64	; 0x40
 800231c:	f843 4022 	str.w	r4, [r3, r2, lsl #2]
 8002320:	6b03      	ldr	r3, [r0, #48]	; 0x30
 8002322:	1c56      	adds	r6, r2, #1
 8002324:	681c      	ldr	r4, [r3, #0]
 8002326:	699d      	ldr	r5, [r3, #24]
 8002328:	f5b1 4f80 	cmp.w	r1, #16384	; 0x4000
 800232c:	ea45 0504 	orr.w	r5, r5, r4
 8002330:	685c      	ldr	r4, [r3, #4]
 8002332:	ea45 1504 	orr.w	r5, r5, r4, lsl #4
 8002336:	689c      	ldr	r4, [r3, #8]
 8002338:	ea45 2504 	orr.w	r5, r5, r4, lsl #8
 800233c:	68dc      	ldr	r4, [r3, #12]
 800233e:	ea45 4504 	orr.w	r5, r5, r4, lsl #16
 8002342:	691c      	ldr	r4, [r3, #16]
 8002344:	695b      	ldr	r3, [r3, #20]
 8002346:	ea45 5404 	orr.w	r4, r5, r4, lsl #20
 800234a:	ea44 6403 	orr.w	r4, r4, r3, lsl #24
 800234e:	f04f 4320 	mov.w	r3, #2684354560	; 0xa0000000
 8002352:	f843 4026 	str.w	r4, [r3, r6, lsl #2]
 8002356:	d110      	bne.n	800237a <FSMC_NORSRAMInit+0xb2>
 8002358:	6b43      	ldr	r3, [r0, #52]	; 0x34
 800235a:	6819      	ldr	r1, [r3, #0]
 800235c:	6998      	ldr	r0, [r3, #24]
 800235e:	4308      	orrs	r0, r1
 8002360:	6859      	ldr	r1, [r3, #4]
 8002362:	ea40 1001 	orr.w	r0, r0, r1, lsl #4
 8002366:	6899      	ldr	r1, [r3, #8]
 8002368:	ea40 2001 	orr.w	r0, r0, r1, lsl #8
 800236c:	6919      	ldr	r1, [r3, #16]
 800236e:	695b      	ldr	r3, [r3, #20]
 8002370:	ea40 5101 	orr.w	r1, r0, r1, lsl #20
 8002374:	ea41 6103 	orr.w	r1, r1, r3, lsl #24
 8002378:	e001      	b.n	800237e <FSMC_NORSRAMInit+0xb6>
 800237a:	f06f 4170 	mvn.w	r1, #4026531840	; 0xf0000000
 800237e:	4b02      	ldr	r3, [pc, #8]	; (8002388 <FSMC_NORSRAMInit+0xc0>)
 8002380:	f843 1022 	str.w	r1, [r3, r2, lsl #2]
 8002384:	bd70      	pop	{r4, r5, r6, pc}
 8002386:	bf00      	nop
 8002388:	a0000104 	.word	0xa0000104

0800238c <FSMC_NANDInit>:
 800238c:	6842      	ldr	r2, [r0, #4]
 800238e:	6883      	ldr	r3, [r0, #8]
 8002390:	b570      	push	{r4, r5, r6, lr}
 8002392:	ea42 0403 	orr.w	r4, r2, r3
 8002396:	68c3      	ldr	r3, [r0, #12]
 8002398:	f044 0408 	orr.w	r4, r4, #8
 800239c:	431c      	orrs	r4, r3
 800239e:	6903      	ldr	r3, [r0, #16]
 80023a0:	431c      	orrs	r4, r3
 80023a2:	6943      	ldr	r3, [r0, #20]
 80023a4:	ea44 2443 	orr.w	r4, r4, r3, lsl #9
 80023a8:	6983      	ldr	r3, [r0, #24]
 80023aa:	ea44 3443 	orr.w	r4, r4, r3, lsl #13
 80023ae:	69c3      	ldr	r3, [r0, #28]
 80023b0:	689a      	ldr	r2, [r3, #8]
 80023b2:	685d      	ldr	r5, [r3, #4]
 80023b4:	0412      	lsls	r2, r2, #16
 80023b6:	ea42 2505 	orr.w	r5, r2, r5, lsl #8
 80023ba:	681a      	ldr	r2, [r3, #0]
 80023bc:	68d9      	ldr	r1, [r3, #12]
 80023be:	6a03      	ldr	r3, [r0, #32]
 80023c0:	432a      	orrs	r2, r5
 80023c2:	ea42 6101 	orr.w	r1, r2, r1, lsl #24
 80023c6:	689a      	ldr	r2, [r3, #8]
 80023c8:	685e      	ldr	r6, [r3, #4]
 80023ca:	0412      	lsls	r2, r2, #16
 80023cc:	681d      	ldr	r5, [r3, #0]
 80023ce:	ea42 2606 	orr.w	r6, r2, r6, lsl #8
 80023d2:	68da      	ldr	r2, [r3, #12]
 80023d4:	6803      	ldr	r3, [r0, #0]
 80023d6:	4335      	orrs	r5, r6
 80023d8:	2b10      	cmp	r3, #16
 80023da:	bf0c      	ite	eq
 80023dc:	4b03      	ldreq	r3, [pc, #12]	; (80023ec <FSMC_NANDInit+0x60>)
 80023de:	4b04      	ldrne	r3, [pc, #16]	; (80023f0 <FSMC_NANDInit+0x64>)
 80023e0:	ea45 6202 	orr.w	r2, r5, r2, lsl #24
 80023e4:	601c      	str	r4, [r3, #0]
 80023e6:	6099      	str	r1, [r3, #8]
 80023e8:	60da      	str	r2, [r3, #12]
 80023ea:	bd70      	pop	{r4, r5, r6, pc}
 80023ec:	a0000060 	.word	0xa0000060
 80023f0:	a0000080 	.word	0xa0000080

080023f4 <FSMC_PCCARDInit>:
 80023f4:	6803      	ldr	r3, [r0, #0]
 80023f6:	b510      	push	{r4, lr}
 80023f8:	f043 0210 	orr.w	r2, r3, #16
 80023fc:	6843      	ldr	r3, [r0, #4]
 80023fe:	ea42 2243 	orr.w	r2, r2, r3, lsl #9
 8002402:	6883      	ldr	r3, [r0, #8]
 8002404:	ea42 3243 	orr.w	r2, r2, r3, lsl #13
 8002408:	4b13      	ldr	r3, [pc, #76]	; (8002458 <FSMC_PCCARDInit+0x64>)
 800240a:	601a      	str	r2, [r3, #0]
 800240c:	68c2      	ldr	r2, [r0, #12]
 800240e:	6891      	ldr	r1, [r2, #8]
 8002410:	6854      	ldr	r4, [r2, #4]
 8002412:	0409      	lsls	r1, r1, #16
 8002414:	ea41 2404 	orr.w	r4, r1, r4, lsl #8
 8002418:	6811      	ldr	r1, [r2, #0]
 800241a:	4321      	orrs	r1, r4
 800241c:	68d4      	ldr	r4, [r2, #12]
 800241e:	6902      	ldr	r2, [r0, #16]
 8002420:	ea41 6104 	orr.w	r1, r1, r4, lsl #24
 8002424:	6099      	str	r1, [r3, #8]
 8002426:	6891      	ldr	r1, [r2, #8]
 8002428:	6854      	ldr	r4, [r2, #4]
 800242a:	0409      	lsls	r1, r1, #16
 800242c:	ea41 2404 	orr.w	r4, r1, r4, lsl #8
 8002430:	6811      	ldr	r1, [r2, #0]
 8002432:	4321      	orrs	r1, r4
 8002434:	68d4      	ldr	r4, [r2, #12]
 8002436:	6942      	ldr	r2, [r0, #20]
 8002438:	ea41 6104 	orr.w	r1, r1, r4, lsl #24
 800243c:	60d9      	str	r1, [r3, #12]
 800243e:	6891      	ldr	r1, [r2, #8]
 8002440:	6850      	ldr	r0, [r2, #4]
 8002442:	0409      	lsls	r1, r1, #16
 8002444:	ea41 2000 	orr.w	r0, r1, r0, lsl #8
 8002448:	6811      	ldr	r1, [r2, #0]
 800244a:	4301      	orrs	r1, r0
 800244c:	68d0      	ldr	r0, [r2, #12]
 800244e:	ea41 6100 	orr.w	r1, r1, r0, lsl #24
 8002452:	6119      	str	r1, [r3, #16]
 8002454:	bd10      	pop	{r4, pc}
 8002456:	bf00      	nop
 8002458:	a00000a0 	.word	0xa00000a0

0800245c <FSMC_NORSRAMStructInit>:
 800245c:	2202      	movs	r2, #2
 800245e:	6042      	str	r2, [r0, #4]
 8002460:	f44f 5280 	mov.w	r2, #4096	; 0x1000
 8002464:	6202      	str	r2, [r0, #32]
 8002466:	6b01      	ldr	r1, [r0, #48]	; 0x30
 8002468:	f44f 5200 	mov.w	r2, #8192	; 0x2000
 800246c:	b510      	push	{r4, lr}
 800246e:	6242      	str	r2, [r0, #36]	; 0x24
 8002470:	2300      	movs	r3, #0
 8002472:	220f      	movs	r2, #15
 8002474:	24ff      	movs	r4, #255	; 0xff
 8002476:	6003      	str	r3, [r0, #0]
 8002478:	6083      	str	r3, [r0, #8]
 800247a:	60c3      	str	r3, [r0, #12]
 800247c:	6103      	str	r3, [r0, #16]
 800247e:	6143      	str	r3, [r0, #20]
 8002480:	6183      	str	r3, [r0, #24]
 8002482:	61c3      	str	r3, [r0, #28]
 8002484:	6283      	str	r3, [r0, #40]	; 0x28
 8002486:	62c3      	str	r3, [r0, #44]	; 0x2c
 8002488:	600a      	str	r2, [r1, #0]
 800248a:	604a      	str	r2, [r1, #4]
 800248c:	608c      	str	r4, [r1, #8]
 800248e:	60ca      	str	r2, [r1, #12]
 8002490:	610a      	str	r2, [r1, #16]
 8002492:	614a      	str	r2, [r1, #20]
 8002494:	618b      	str	r3, [r1, #24]
 8002496:	6b41      	ldr	r1, [r0, #52]	; 0x34
 8002498:	600a      	str	r2, [r1, #0]
 800249a:	604a      	str	r2, [r1, #4]
 800249c:	608c      	str	r4, [r1, #8]
 800249e:	60ca      	str	r2, [r1, #12]
 80024a0:	610a      	str	r2, [r1, #16]
 80024a2:	614a      	str	r2, [r1, #20]
 80024a4:	618b      	str	r3, [r1, #24]
 80024a6:	bd10      	pop	{r4, pc}

080024a8 <FSMC_NANDStructInit>:
 80024a8:	2310      	movs	r3, #16
 80024aa:	6003      	str	r3, [r0, #0]
 80024ac:	69c2      	ldr	r2, [r0, #28]
 80024ae:	2300      	movs	r3, #0
 80024b0:	6043      	str	r3, [r0, #4]
 80024b2:	6083      	str	r3, [r0, #8]
 80024b4:	60c3      	str	r3, [r0, #12]
 80024b6:	6103      	str	r3, [r0, #16]
 80024b8:	6143      	str	r3, [r0, #20]
 80024ba:	6183      	str	r3, [r0, #24]
 80024bc:	23fc      	movs	r3, #252	; 0xfc
 80024be:	6013      	str	r3, [r2, #0]
 80024c0:	6053      	str	r3, [r2, #4]
 80024c2:	6093      	str	r3, [r2, #8]
 80024c4:	60d3      	str	r3, [r2, #12]
 80024c6:	6a02      	ldr	r2, [r0, #32]
 80024c8:	6013      	str	r3, [r2, #0]
 80024ca:	6053      	str	r3, [r2, #4]
 80024cc:	6093      	str	r3, [r2, #8]
 80024ce:	60d3      	str	r3, [r2, #12]
 80024d0:	4770      	bx	lr

080024d2 <FSMC_PCCARDStructInit>:
 80024d2:	68c2      	ldr	r2, [r0, #12]
 80024d4:	2300      	movs	r3, #0
 80024d6:	6003      	str	r3, [r0, #0]
 80024d8:	6043      	str	r3, [r0, #4]
 80024da:	6083      	str	r3, [r0, #8]
 80024dc:	23fc      	movs	r3, #252	; 0xfc
 80024de:	6013      	str	r3, [r2, #0]
 80024e0:	6053      	str	r3, [r2, #4]
 80024e2:	6093      	str	r3, [r2, #8]
 80024e4:	60d3      	str	r3, [r2, #12]
 80024e6:	6902      	ldr	r2, [r0, #16]
 80024e8:	6013      	str	r3, [r2, #0]
 80024ea:	6053      	str	r3, [r2, #4]
 80024ec:	6093      	str	r3, [r2, #8]
 80024ee:	60d3      	str	r3, [r2, #12]
 80024f0:	6942      	ldr	r2, [r0, #20]
 80024f2:	6013      	str	r3, [r2, #0]
 80024f4:	6053      	str	r3, [r2, #4]
 80024f6:	6093      	str	r3, [r2, #8]
 80024f8:	60d3      	str	r3, [r2, #12]
 80024fa:	4770      	bx	lr

080024fc <FSMC_NORSRAMCmd>:
 80024fc:	f04f 4320 	mov.w	r3, #2684354560	; 0xa0000000
 8002500:	b121      	cbz	r1, 800250c <FSMC_NORSRAMCmd+0x10>
 8002502:	f853 2020 	ldr.w	r2, [r3, r0, lsl #2]
 8002506:	f042 0201 	orr.w	r2, r2, #1
 800250a:	e003      	b.n	8002514 <FSMC_NORSRAMCmd+0x18>
 800250c:	f853 1020 	ldr.w	r1, [r3, r0, lsl #2]
 8002510:	4a02      	ldr	r2, [pc, #8]	; (800251c <FSMC_NORSRAMCmd+0x20>)
 8002512:	400a      	ands	r2, r1
 8002514:	f843 2020 	str.w	r2, [r3, r0, lsl #2]
 8002518:	4770      	bx	lr
 800251a:	bf00      	nop
 800251c:	000ffffe 	.word	0x000ffffe

08002520 <FSMC_NANDCmd>:
 8002520:	b141      	cbz	r1, 8002534 <FSMC_NANDCmd+0x14>
 8002522:	2810      	cmp	r0, #16
 8002524:	bf0c      	ite	eq
 8002526:	4b08      	ldreq	r3, [pc, #32]	; (8002548 <FSMC_NANDCmd+0x28>)
 8002528:	4b08      	ldrne	r3, [pc, #32]	; (800254c <FSMC_NANDCmd+0x2c>)
 800252a:	681a      	ldr	r2, [r3, #0]
 800252c:	f042 0204 	orr.w	r2, r2, #4
 8002530:	601a      	str	r2, [r3, #0]
 8002532:	4770      	bx	lr
 8002534:	2810      	cmp	r0, #16
 8002536:	bf0c      	ite	eq
 8002538:	4a03      	ldreq	r2, [pc, #12]	; (8002548 <FSMC_NANDCmd+0x28>)
 800253a:	4a04      	ldrne	r2, [pc, #16]	; (800254c <FSMC_NANDCmd+0x2c>)
 800253c:	4b04      	ldr	r3, [pc, #16]	; (8002550 <FSMC_NANDCmd+0x30>)
 800253e:	6811      	ldr	r1, [r2, #0]
 8002540:	400b      	ands	r3, r1
 8002542:	6013      	str	r3, [r2, #0]
 8002544:	4770      	bx	lr
 8002546:	bf00      	nop
 8002548:	a0000060 	.word	0xa0000060
 800254c:	a0000080 	.word	0xa0000080
 8002550:	000ffffb 	.word	0x000ffffb

08002554 <FSMC_PCCARDCmd>:
 8002554:	4b05      	ldr	r3, [pc, #20]	; (800256c <FSMC_PCCARDCmd+0x18>)
 8002556:	b118      	cbz	r0, 8002560 <FSMC_PCCARDCmd+0xc>
 8002558:	681a      	ldr	r2, [r3, #0]
 800255a:	f042 0204 	orr.w	r2, r2, #4
 800255e:	e002      	b.n	8002566 <FSMC_PCCARDCmd+0x12>
 8002560:	6819      	ldr	r1, [r3, #0]
 8002562:	4a03      	ldr	r2, [pc, #12]	; (8002570 <FSMC_PCCARDCmd+0x1c>)
 8002564:	400a      	ands	r2, r1
 8002566:	601a      	str	r2, [r3, #0]
 8002568:	4770      	bx	lr
 800256a:	bf00      	nop
 800256c:	a00000a0 	.word	0xa00000a0
 8002570:	000ffffb 	.word	0x000ffffb

08002574 <FSMC_NANDECCCmd>:
 8002574:	b141      	cbz	r1, 8002588 <FSMC_NANDECCCmd+0x14>
 8002576:	2810      	cmp	r0, #16
 8002578:	bf0c      	ite	eq
 800257a:	4b08      	ldreq	r3, [pc, #32]	; (800259c <FSMC_NANDECCCmd+0x28>)
 800257c:	4b08      	ldrne	r3, [pc, #32]	; (80025a0 <FSMC_NANDECCCmd+0x2c>)
 800257e:	681a      	ldr	r2, [r3, #0]
 8002580:	f042 0240 	orr.w	r2, r2, #64	; 0x40
 8002584:	601a      	str	r2, [r3, #0]
 8002586:	4770      	bx	lr
 8002588:	2810      	cmp	r0, #16
 800258a:	bf0c      	ite	eq
 800258c:	4a03      	ldreq	r2, [pc, #12]	; (800259c <FSMC_NANDECCCmd+0x28>)
 800258e:	4a04      	ldrne	r2, [pc, #16]	; (80025a0 <FSMC_NANDECCCmd+0x2c>)
 8002590:	4b04      	ldr	r3, [pc, #16]	; (80025a4 <FSMC_NANDECCCmd+0x30>)
 8002592:	6811      	ldr	r1, [r2, #0]
 8002594:	400b      	ands	r3, r1
 8002596:	6013      	str	r3, [r2, #0]
 8002598:	4770      	bx	lr
 800259a:	bf00      	nop
 800259c:	a0000060 	.word	0xa0000060
 80025a0:	a0000080 	.word	0xa0000080
 80025a4:	000fffbf 	.word	0x000fffbf

080025a8 <FSMC_GetECC>:
 80025a8:	2810      	cmp	r0, #16
 80025aa:	bf0c      	ite	eq
 80025ac:	4b01      	ldreq	r3, [pc, #4]	; (80025b4 <FSMC_GetECC+0xc>)
 80025ae:	4b02      	ldrne	r3, [pc, #8]	; (80025b8 <FSMC_GetECC+0x10>)
 80025b0:	6958      	ldr	r0, [r3, #20]
 80025b2:	4770      	bx	lr
 80025b4:	a0000060 	.word	0xa0000060
 80025b8:	a0000080 	.word	0xa0000080

080025bc <FSMC_ITConfig>:
 80025bc:	b15a      	cbz	r2, 80025d6 <FSMC_ITConfig+0x1a>
 80025be:	2810      	cmp	r0, #16
 80025c0:	d101      	bne.n	80025c6 <FSMC_ITConfig+0xa>
 80025c2:	4b0d      	ldr	r3, [pc, #52]	; (80025f8 <FSMC_ITConfig+0x3c>)
 80025c4:	e004      	b.n	80025d0 <FSMC_ITConfig+0x14>
 80025c6:	f5b0 7f80 	cmp.w	r0, #256	; 0x100
 80025ca:	bf0c      	ite	eq
 80025cc:	4b0b      	ldreq	r3, [pc, #44]	; (80025fc <FSMC_ITConfig+0x40>)
 80025ce:	4b0c      	ldrne	r3, [pc, #48]	; (8002600 <FSMC_ITConfig+0x44>)
 80025d0:	685a      	ldr	r2, [r3, #4]
 80025d2:	4311      	orrs	r1, r2
 80025d4:	e00e      	b.n	80025f4 <FSMC_ITConfig+0x38>
 80025d6:	2810      	cmp	r0, #16
 80025d8:	d104      	bne.n	80025e4 <FSMC_ITConfig+0x28>
 80025da:	4b07      	ldr	r3, [pc, #28]	; (80025f8 <FSMC_ITConfig+0x3c>)
 80025dc:	685a      	ldr	r2, [r3, #4]
 80025de:	ea22 0101 	bic.w	r1, r2, r1
 80025e2:	e007      	b.n	80025f4 <FSMC_ITConfig+0x38>
 80025e4:	f5b0 7f80 	cmp.w	r0, #256	; 0x100
 80025e8:	bf0c      	ite	eq
 80025ea:	4b04      	ldreq	r3, [pc, #16]	; (80025fc <FSMC_ITConfig+0x40>)
 80025ec:	4b04      	ldrne	r3, [pc, #16]	; (8002600 <FSMC_ITConfig+0x44>)
 80025ee:	43c9      	mvns	r1, r1
 80025f0:	685a      	ldr	r2, [r3, #4]
 80025f2:	4011      	ands	r1, r2
 80025f4:	6059      	str	r1, [r3, #4]
 80025f6:	4770      	bx	lr
 80025f8:	a0000060 	.word	0xa0000060
 80025fc:	a0000080 	.word	0xa0000080
 8002600:	a00000a0 	.word	0xa00000a0

08002604 <FSMC_GetFlagStatus>:
 8002604:	2810      	cmp	r0, #16
 8002606:	d101      	bne.n	800260c <FSMC_GetFlagStatus+0x8>
 8002608:	4b06      	ldr	r3, [pc, #24]	; (8002624 <FSMC_GetFlagStatus+0x20>)
 800260a:	e004      	b.n	8002616 <FSMC_GetFlagStatus+0x12>
 800260c:	f5b0 7f80 	cmp.w	r0, #256	; 0x100
 8002610:	bf0c      	ite	eq
 8002612:	4b05      	ldreq	r3, [pc, #20]	; (8002628 <FSMC_GetFlagStatus+0x24>)
 8002614:	4b05      	ldrne	r3, [pc, #20]	; (800262c <FSMC_GetFlagStatus+0x28>)
 8002616:	685b      	ldr	r3, [r3, #4]
 8002618:	420b      	tst	r3, r1
 800261a:	bf0c      	ite	eq
 800261c:	2000      	moveq	r0, #0
 800261e:	2001      	movne	r0, #1
 8002620:	4770      	bx	lr
 8002622:	bf00      	nop
 8002624:	a0000060 	.word	0xa0000060
 8002628:	a0000080 	.word	0xa0000080
 800262c:	a00000a0 	.word	0xa00000a0

08002630 <FSMC_ClearFlag>:
 8002630:	2810      	cmp	r0, #16
 8002632:	d104      	bne.n	800263e <FSMC_ClearFlag+0xe>
 8002634:	4b07      	ldr	r3, [pc, #28]	; (8002654 <FSMC_ClearFlag+0x24>)
 8002636:	685a      	ldr	r2, [r3, #4]
 8002638:	ea22 0101 	bic.w	r1, r2, r1
 800263c:	e007      	b.n	800264e <FSMC_ClearFlag+0x1e>
 800263e:	f5b0 7f80 	cmp.w	r0, #256	; 0x100
 8002642:	bf0c      	ite	eq
 8002644:	4b04      	ldreq	r3, [pc, #16]	; (8002658 <FSMC_ClearFlag+0x28>)
 8002646:	4b05      	ldrne	r3, [pc, #20]	; (800265c <FSMC_ClearFlag+0x2c>)
 8002648:	43c9      	mvns	r1, r1
 800264a:	685a      	ldr	r2, [r3, #4]
 800264c:	4011      	ands	r1, r2
 800264e:	6059      	str	r1, [r3, #4]
 8002650:	4770      	bx	lr
 8002652:	bf00      	nop
 8002654:	a0000060 	.word	0xa0000060
 8002658:	a0000080 	.word	0xa0000080
 800265c:	a00000a0 	.word	0xa00000a0

08002660 <FSMC_GetITStatus>:
 8002660:	2810      	cmp	r0, #16
 8002662:	d101      	bne.n	8002668 <FSMC_GetITStatus+0x8>
 8002664:	4b08      	ldr	r3, [pc, #32]	; (8002688 <FSMC_GetITStatus+0x28>)
 8002666:	e004      	b.n	8002672 <FSMC_GetITStatus+0x12>
 8002668:	f5b0 7f80 	cmp.w	r0, #256	; 0x100
 800266c:	bf0c      	ite	eq
 800266e:	4b07      	ldreq	r3, [pc, #28]	; (800268c <FSMC_GetITStatus+0x2c>)
 8002670:	4b07      	ldrne	r3, [pc, #28]	; (8002690 <FSMC_GetITStatus+0x30>)
 8002672:	685b      	ldr	r3, [r3, #4]
 8002674:	ea13 0001 	ands.w	r0, r3, r1
 8002678:	d004      	beq.n	8002684 <FSMC_GetITStatus+0x24>
 800267a:	ea13 01d1 	ands.w	r1, r3, r1, lsr #3
 800267e:	bf0c      	ite	eq
 8002680:	2000      	moveq	r0, #0
 8002682:	2001      	movne	r0, #1
 8002684:	4770      	bx	lr
 8002686:	bf00      	nop
 8002688:	a0000060 	.word	0xa0000060
 800268c:	a0000080 	.word	0xa0000080
 8002690:	a00000a0 	.word	0xa00000a0

08002694 <FSMC_ClearITPendingBit>:
 8002694:	2810      	cmp	r0, #16
 8002696:	d104      	bne.n	80026a2 <FSMC_ClearITPendingBit+0xe>
 8002698:	4b07      	ldr	r3, [pc, #28]	; (80026b8 <FSMC_ClearITPendingBit+0x24>)
 800269a:	685a      	ldr	r2, [r3, #4]
 800269c:	ea22 01d1 	bic.w	r1, r2, r1, lsr #3
 80026a0:	e008      	b.n	80026b4 <FSMC_ClearITPendingBit+0x20>
 80026a2:	f5b0 7f80 	cmp.w	r0, #256	; 0x100
 80026a6:	bf0c      	ite	eq
 80026a8:	4b04      	ldreq	r3, [pc, #16]	; (80026bc <FSMC_ClearITPendingBit+0x28>)
 80026aa:	4b05      	ldrne	r3, [pc, #20]	; (80026c0 <FSMC_ClearITPendingBit+0x2c>)
 80026ac:	08c9      	lsrs	r1, r1, #3
 80026ae:	685a      	ldr	r2, [r3, #4]
 80026b0:	ea22 0101 	bic.w	r1, r2, r1
 80026b4:	6059      	str	r1, [r3, #4]
 80026b6:	4770      	bx	lr
 80026b8:	a0000060 	.word	0xa0000060
 80026bc:	a0000080 	.word	0xa0000080
 80026c0:	a00000a0 	.word	0xa00000a0

080026c4 <GPIO_DeInit>:
 80026c4:	b508      	push	{r3, lr}
 80026c6:	4b23      	ldr	r3, [pc, #140]	; (8002754 <GPIO_DeInit+0x90>)
 80026c8:	4298      	cmp	r0, r3
 80026ca:	d105      	bne.n	80026d8 <GPIO_DeInit+0x14>
 80026cc:	2004      	movs	r0, #4
 80026ce:	2101      	movs	r1, #1
 80026d0:	f000 ff32 	bl	8003538 <RCC_APB2PeriphResetCmd>
 80026d4:	2004      	movs	r0, #4
 80026d6:	e036      	b.n	8002746 <GPIO_DeInit+0x82>
 80026d8:	4b1f      	ldr	r3, [pc, #124]	; (8002758 <GPIO_DeInit+0x94>)
 80026da:	4298      	cmp	r0, r3
 80026dc:	d105      	bne.n	80026ea <GPIO_DeInit+0x26>
 80026de:	2008      	movs	r0, #8
 80026e0:	2101      	movs	r1, #1
 80026e2:	f000 ff29 	bl	8003538 <RCC_APB2PeriphResetCmd>
 80026e6:	2008      	movs	r0, #8
 80026e8:	e02d      	b.n	8002746 <GPIO_DeInit+0x82>
 80026ea:	4b1c      	ldr	r3, [pc, #112]	; (800275c <GPIO_DeInit+0x98>)
 80026ec:	4298      	cmp	r0, r3
 80026ee:	d105      	bne.n	80026fc <GPIO_DeInit+0x38>
 80026f0:	2010      	movs	r0, #16
 80026f2:	2101      	movs	r1, #1
 80026f4:	f000 ff20 	bl	8003538 <RCC_APB2PeriphResetCmd>
 80026f8:	2010      	movs	r0, #16
 80026fa:	e024      	b.n	8002746 <GPIO_DeInit+0x82>
 80026fc:	4b18      	ldr	r3, [pc, #96]	; (8002760 <GPIO_DeInit+0x9c>)
 80026fe:	4298      	cmp	r0, r3
 8002700:	d105      	bne.n	800270e <GPIO_DeInit+0x4a>
 8002702:	2020      	movs	r0, #32
 8002704:	2101      	movs	r1, #1
 8002706:	f000 ff17 	bl	8003538 <RCC_APB2PeriphResetCmd>
 800270a:	2020      	movs	r0, #32
 800270c:	e01b      	b.n	8002746 <GPIO_DeInit+0x82>
 800270e:	4b15      	ldr	r3, [pc, #84]	; (8002764 <GPIO_DeInit+0xa0>)
 8002710:	4298      	cmp	r0, r3
 8002712:	d105      	bne.n	8002720 <GPIO_DeInit+0x5c>
 8002714:	2040      	movs	r0, #64	; 0x40
 8002716:	2101      	movs	r1, #1
 8002718:	f000 ff0e 	bl	8003538 <RCC_APB2PeriphResetCmd>
 800271c:	2040      	movs	r0, #64	; 0x40
 800271e:	e012      	b.n	8002746 <GPIO_DeInit+0x82>
 8002720:	4b11      	ldr	r3, [pc, #68]	; (8002768 <GPIO_DeInit+0xa4>)
 8002722:	4298      	cmp	r0, r3
 8002724:	d105      	bne.n	8002732 <GPIO_DeInit+0x6e>
 8002726:	2080      	movs	r0, #128	; 0x80
 8002728:	2101      	movs	r1, #1
 800272a:	f000 ff05 	bl	8003538 <RCC_APB2PeriphResetCmd>
 800272e:	2080      	movs	r0, #128	; 0x80
 8002730:	e009      	b.n	8002746 <GPIO_DeInit+0x82>
 8002732:	4b0e      	ldr	r3, [pc, #56]	; (800276c <GPIO_DeInit+0xa8>)
 8002734:	4298      	cmp	r0, r3
 8002736:	d10b      	bne.n	8002750 <GPIO_DeInit+0x8c>
 8002738:	f44f 7080 	mov.w	r0, #256	; 0x100
 800273c:	2101      	movs	r1, #1
 800273e:	f000 fefb 	bl	8003538 <RCC_APB2PeriphResetCmd>
 8002742:	f44f 7080 	mov.w	r0, #256	; 0x100
 8002746:	2100      	movs	r1, #0
 8002748:	e8bd 4008 	ldmia.w	sp!, {r3, lr}
 800274c:	f000 bef4 	b.w	8003538 <RCC_APB2PeriphResetCmd>
 8002750:	bd08      	pop	{r3, pc}
 8002752:	bf00      	nop
 8002754:	40010800 	.word	0x40010800
 8002758:	40010c00 	.word	0x40010c00
 800275c:	40011000 	.word	0x40011000
 8002760:	40011400 	.word	0x40011400
 8002764:	40011800 	.word	0x40011800
 8002768:	40011c00 	.word	0x40011c00
 800276c:	40012000 	.word	0x40012000

08002770 <GPIO_AFIODeInit>:
 8002770:	2001      	movs	r0, #1
 8002772:	4601      	mov	r1, r0
 8002774:	b508      	push	{r3, lr}
 8002776:	f000 fedf 	bl	8003538 <RCC_APB2PeriphResetCmd>
 800277a:	2001      	movs	r0, #1
 800277c:	2100      	movs	r1, #0
 800277e:	e8bd 4008 	ldmia.w	sp!, {r3, lr}
 8002782:	f000 bed9 	b.w	8003538 <RCC_APB2PeriphResetCmd>

08002786 <GPIO_Init>:
 8002786:	78cb      	ldrb	r3, [r1, #3]
 8002788:	e92d 43f0 	stmdb	sp!, {r4, r5, r6, r7, r8, r9, lr}
 800278c:	06da      	lsls	r2, r3, #27
 800278e:	bf48      	it	mi
 8002790:	788a      	ldrbmi	r2, [r1, #2]
 8002792:	8809      	ldrh	r1, [r1, #0]
 8002794:	f003 050f 	and.w	r5, r3, #15
 8002798:	bf48      	it	mi
 800279a:	4315      	orrmi	r5, r2
 800279c:	f011 0fff 	tst.w	r1, #255	; 0xff
 80027a0:	d01f      	beq.n	80027e2 <GPIO_Init+0x5c>
 80027a2:	6804      	ldr	r4, [r0, #0]
 80027a4:	2200      	movs	r2, #0
 80027a6:	f04f 0c01 	mov.w	ip, #1
 80027aa:	f04f 080f 	mov.w	r8, #15
 80027ae:	fa0c f702 	lsl.w	r7, ip, r2
 80027b2:	ea07 0601 	and.w	r6, r7, r1
 80027b6:	42be      	cmp	r6, r7
 80027b8:	d10f      	bne.n	80027da <GPIO_Init+0x54>
 80027ba:	0097      	lsls	r7, r2, #2
 80027bc:	fa08 f907 	lsl.w	r9, r8, r7
 80027c0:	fa05 f707 	lsl.w	r7, r5, r7
 80027c4:	ea24 0409 	bic.w	r4, r4, r9
 80027c8:	2b28      	cmp	r3, #40	; 0x28
 80027ca:	ea44 0407 	orr.w	r4, r4, r7
 80027ce:	d101      	bne.n	80027d4 <GPIO_Init+0x4e>
 80027d0:	6146      	str	r6, [r0, #20]
 80027d2:	e002      	b.n	80027da <GPIO_Init+0x54>
 80027d4:	2b48      	cmp	r3, #72	; 0x48
 80027d6:	bf08      	it	eq
 80027d8:	6106      	streq	r6, [r0, #16]
 80027da:	3201      	adds	r2, #1
 80027dc:	2a08      	cmp	r2, #8
 80027de:	d1e6      	bne.n	80027ae <GPIO_Init+0x28>
 80027e0:	6004      	str	r4, [r0, #0]
 80027e2:	29ff      	cmp	r1, #255	; 0xff
 80027e4:	d921      	bls.n	800282a <GPIO_Init+0xa4>
 80027e6:	6844      	ldr	r4, [r0, #4]
 80027e8:	2200      	movs	r2, #0
 80027ea:	f04f 0c01 	mov.w	ip, #1
 80027ee:	f04f 080f 	mov.w	r8, #15
 80027f2:	f102 0708 	add.w	r7, r2, #8
 80027f6:	fa0c f707 	lsl.w	r7, ip, r7
 80027fa:	ea07 0601 	and.w	r6, r7, r1
 80027fe:	42be      	cmp	r6, r7
 8002800:	d10f      	bne.n	8002822 <GPIO_Init+0x9c>
 8002802:	0097      	lsls	r7, r2, #2
 8002804:	fa08 f907 	lsl.w	r9, r8, r7
 8002808:	fa05 f707 	lsl.w	r7, r5, r7
 800280c:	ea24 0409 	bic.w	r4, r4, r9
 8002810:	2b28      	cmp	r3, #40	; 0x28
 8002812:	ea44 0407 	orr.w	r4, r4, r7
 8002816:	d101      	bne.n	800281c <GPIO_Init+0x96>
 8002818:	6146      	str	r6, [r0, #20]
 800281a:	e002      	b.n	8002822 <GPIO_Init+0x9c>
 800281c:	2b48      	cmp	r3, #72	; 0x48
 800281e:	bf08      	it	eq
 8002820:	6106      	streq	r6, [r0, #16]
 8002822:	3201      	adds	r2, #1
 8002824:	2a08      	cmp	r2, #8
 8002826:	d1e4      	bne.n	80027f2 <GPIO_Init+0x6c>
 8002828:	6044      	str	r4, [r0, #4]
 800282a:	e8bd 83f0 	ldmia.w	sp!, {r4, r5, r6, r7, r8, r9, pc}

0800282e <GPIO_StructInit>:
 800282e:	f64f 73ff 	movw	r3, #65535	; 0xffff
 8002832:	8003      	strh	r3, [r0, #0]
 8002834:	2302      	movs	r3, #2
 8002836:	7083      	strb	r3, [r0, #2]
 8002838:	2304      	movs	r3, #4
 800283a:	70c3      	strb	r3, [r0, #3]
 800283c:	4770      	bx	lr

0800283e <GPIO_ReadInputDataBit>:
 800283e:	6883      	ldr	r3, [r0, #8]
 8002840:	4219      	tst	r1, r3
 8002842:	bf0c      	ite	eq
 8002844:	2000      	moveq	r0, #0
 8002846:	2001      	movne	r0, #1
 8002848:	4770      	bx	lr

0800284a <GPIO_ReadInputData>:
 800284a:	6880      	ldr	r0, [r0, #8]
 800284c:	b280      	uxth	r0, r0
 800284e:	4770      	bx	lr

08002850 <GPIO_ReadOutputDataBit>:
 8002850:	68c3      	ldr	r3, [r0, #12]
 8002852:	4219      	tst	r1, r3
 8002854:	bf0c      	ite	eq
 8002856:	2000      	moveq	r0, #0
 8002858:	2001      	movne	r0, #1
 800285a:	4770      	bx	lr

0800285c <GPIO_ReadOutputData>:
 800285c:	68c0      	ldr	r0, [r0, #12]
 800285e:	b280      	uxth	r0, r0
 8002860:	4770      	bx	lr

08002862 <GPIO_SetBits>:
 8002862:	6101      	str	r1, [r0, #16]
 8002864:	4770      	bx	lr

08002866 <GPIO_ResetBits>:
 8002866:	6141      	str	r1, [r0, #20]
 8002868:	4770      	bx	lr

0800286a <GPIO_WriteBit>:
 800286a:	b10a      	cbz	r2, 8002870 <GPIO_WriteBit+0x6>
 800286c:	6101      	str	r1, [r0, #16]
 800286e:	4770      	bx	lr
 8002870:	6141      	str	r1, [r0, #20]
 8002872:	4770      	bx	lr

08002874 <GPIO_Write>:
 8002874:	60c1      	str	r1, [r0, #12]
 8002876:	4770      	bx	lr

08002878 <GPIO_PinLockConfig>:
 8002878:	f441 3380 	orr.w	r3, r1, #65536	; 0x10000
 800287c:	6183      	str	r3, [r0, #24]
 800287e:	6181      	str	r1, [r0, #24]
 8002880:	6183      	str	r3, [r0, #24]
 8002882:	6983      	ldr	r3, [r0, #24]
 8002884:	6983      	ldr	r3, [r0, #24]
 8002886:	4770      	bx	lr

08002888 <GPIO_EventOutputConfig>:
 8002888:	4a05      	ldr	r2, [pc, #20]	; (80028a0 <GPIO_EventOutputConfig+0x18>)
 800288a:	b510      	push	{r4, lr}
 800288c:	6814      	ldr	r4, [r2, #0]
 800288e:	f64f 7380 	movw	r3, #65408	; 0xff80
 8002892:	4023      	ands	r3, r4
 8002894:	ea41 1100 	orr.w	r1, r1, r0, lsl #4
 8002898:	430b      	orrs	r3, r1
 800289a:	6013      	str	r3, [r2, #0]
 800289c:	bd10      	pop	{r4, pc}
 800289e:	bf00      	nop
 80028a0:	40010000 	.word	0x40010000

080028a4 <GPIO_EventOutputCmd>:
 80028a4:	4b01      	ldr	r3, [pc, #4]	; (80028ac <GPIO_EventOutputCmd+0x8>)
 80028a6:	6018      	str	r0, [r3, #0]
 80028a8:	4770      	bx	lr
 80028aa:	bf00      	nop
 80028ac:	4220001c 	.word	0x4220001c

080028b0 <GPIO_PinRemapConfig>:
 80028b0:	2800      	cmp	r0, #0
 80028b2:	4a16      	ldr	r2, [pc, #88]	; (800290c <GPIO_PinRemapConfig+0x5c>)
 80028b4:	b530      	push	{r4, r5, lr}
 80028b6:	f400 1540 	and.w	r5, r0, #3145728	; 0x300000
 80028ba:	bfb4      	ite	lt
 80028bc:	69d3      	ldrlt	r3, [r2, #28]
 80028be:	6853      	ldrge	r3, [r2, #4]
 80028c0:	f5b5 1f40 	cmp.w	r5, #3145728	; 0x300000
 80028c4:	b284      	uxth	r4, r0
 80028c6:	d106      	bne.n	80028d6 <GPIO_PinRemapConfig+0x26>
 80028c8:	6855      	ldr	r5, [r2, #4]
 80028ca:	f023 6370 	bic.w	r3, r3, #251658240	; 0xf000000
 80028ce:	f025 6570 	bic.w	r5, r5, #251658240	; 0xf000000
 80028d2:	6055      	str	r5, [r2, #4]
 80028d4:	e00f      	b.n	80028f6 <GPIO_PinRemapConfig+0x46>
 80028d6:	02c2      	lsls	r2, r0, #11
 80028d8:	d505      	bpl.n	80028e6 <GPIO_PinRemapConfig+0x36>
 80028da:	f3c0 4203 	ubfx	r2, r0, #16, #4
 80028de:	2503      	movs	r5, #3
 80028e0:	fa05 f202 	lsl.w	r2, r5, r2
 80028e4:	e003      	b.n	80028ee <GPIO_PinRemapConfig+0x3e>
 80028e6:	0d42      	lsrs	r2, r0, #21
 80028e8:	0112      	lsls	r2, r2, #4
 80028ea:	fa04 f202 	lsl.w	r2, r4, r2
 80028ee:	ea23 0302 	bic.w	r3, r3, r2
 80028f2:	f043 6370 	orr.w	r3, r3, #251658240	; 0xf000000
 80028f6:	b119      	cbz	r1, 8002900 <GPIO_PinRemapConfig+0x50>
 80028f8:	0d42      	lsrs	r2, r0, #21
 80028fa:	0112      	lsls	r2, r2, #4
 80028fc:	4094      	lsls	r4, r2
 80028fe:	4323      	orrs	r3, r4
 8002900:	4a02      	ldr	r2, [pc, #8]	; (800290c <GPIO_PinRemapConfig+0x5c>)
 8002902:	2800      	cmp	r0, #0
 8002904:	bfb4      	ite	lt
 8002906:	61d3      	strlt	r3, [r2, #28]
 8002908:	6053      	strge	r3, [r2, #4]
 800290a:	bd30      	pop	{r4, r5, pc}
 800290c:	40010000 	.word	0x40010000

08002910 <GPIO_EXTILineConfig>:
 8002910:	f001 0203 	and.w	r2, r1, #3
 8002914:	b530      	push	{r4, r5, lr}
 8002916:	0092      	lsls	r2, r2, #2
 8002918:	240f      	movs	r4, #15
 800291a:	4094      	lsls	r4, r2
 800291c:	4090      	lsls	r0, r2
 800291e:	4b07      	ldr	r3, [pc, #28]	; (800293c <GPIO_EXTILineConfig+0x2c>)
 8002920:	0889      	lsrs	r1, r1, #2
 8002922:	3102      	adds	r1, #2
 8002924:	f853 5021 	ldr.w	r5, [r3, r1, lsl #2]
 8002928:	ea25 0404 	bic.w	r4, r5, r4
 800292c:	f843 4021 	str.w	r4, [r3, r1, lsl #2]
 8002930:	f853 4021 	ldr.w	r4, [r3, r1, lsl #2]
 8002934:	4304      	orrs	r4, r0
 8002936:	f843 4021 	str.w	r4, [r3, r1, lsl #2]
 800293a:	bd30      	pop	{r4, r5, pc}
 800293c:	40010000 	.word	0x40010000

08002940 <GPIO_ETH_MediaInterfaceConfig>:
 8002940:	4b01      	ldr	r3, [pc, #4]	; (8002948 <GPIO_ETH_MediaInterfaceConfig+0x8>)
 8002942:	6018      	str	r0, [r3, #0]
 8002944:	4770      	bx	lr
 8002946:	bf00      	nop
 8002948:	422000dc 	.word	0x422000dc

0800294c <I2C_DeInit>:
 800294c:	b508      	push	{r3, lr}
 800294e:	4b0b      	ldr	r3, [pc, #44]	; (800297c <I2C_DeInit+0x30>)
 8002950:	4298      	cmp	r0, r3
 8002952:	d107      	bne.n	8002964 <I2C_DeInit+0x18>
 8002954:	f44f 1000 	mov.w	r0, #2097152	; 0x200000
 8002958:	2101      	movs	r1, #1
 800295a:	f000 fdf9 	bl	8003550 <RCC_APB1PeriphResetCmd>
 800295e:	f44f 1000 	mov.w	r0, #2097152	; 0x200000
 8002962:	e006      	b.n	8002972 <I2C_DeInit+0x26>
 8002964:	f44f 0080 	mov.w	r0, #4194304	; 0x400000
 8002968:	2101      	movs	r1, #1
 800296a:	f000 fdf1 	bl	8003550 <RCC_APB1PeriphResetCmd>
 800296e:	f44f 0080 	mov.w	r0, #4194304	; 0x400000
 8002972:	2100      	movs	r1, #0
 8002974:	e8bd 4008 	ldmia.w	sp!, {r3, lr}
 8002978:	f000 bdea 	b.w	8003550 <RCC_APB1PeriphResetCmd>
 800297c:	40005400 	.word	0x40005400

08002980 <I2C_Init>:
 8002980:	b5f0      	push	{r4, r5, r6, r7, lr}
 8002982:	b087      	sub	sp, #28
 8002984:	4604      	mov	r4, r0
 8002986:	8886      	ldrh	r6, [r0, #4]
 8002988:	a801      	add	r0, sp, #4
 800298a:	460d      	mov	r5, r1
 800298c:	f000 fd6a 	bl	8003464 <RCC_GetClocksFreq>
 8002990:	9903      	ldr	r1, [sp, #12]
 8002992:	482d      	ldr	r0, [pc, #180]	; (8002a48 <I2C_Init+0xc8>)
 8002994:	f026 063f 	bic.w	r6, r6, #63	; 0x3f
 8002998:	0436      	lsls	r6, r6, #16
 800299a:	fbb1 f0f0 	udiv	r0, r1, r0
 800299e:	0c36      	lsrs	r6, r6, #16
 80029a0:	b287      	uxth	r7, r0
 80029a2:	433e      	orrs	r6, r7
 80029a4:	80a6      	strh	r6, [r4, #4]
 80029a6:	8822      	ldrh	r2, [r4, #0]
 80029a8:	682b      	ldr	r3, [r5, #0]
 80029aa:	f022 0201 	bic.w	r2, r2, #1
 80029ae:	0412      	lsls	r2, r2, #16
 80029b0:	0c12      	lsrs	r2, r2, #16
 80029b2:	8022      	strh	r2, [r4, #0]
 80029b4:	4a25      	ldr	r2, [pc, #148]	; (8002a4c <I2C_Init+0xcc>)
 80029b6:	4293      	cmp	r3, r2
 80029b8:	d80a      	bhi.n	80029d0 <I2C_Init+0x50>
 80029ba:	005b      	lsls	r3, r3, #1
 80029bc:	fbb1 f3f3 	udiv	r3, r1, r3
 80029c0:	3701      	adds	r7, #1
 80029c2:	b29b      	uxth	r3, r3
 80029c4:	b2bf      	uxth	r7, r7
 80029c6:	2b03      	cmp	r3, #3
 80029c8:	bf98      	it	ls
 80029ca:	2304      	movls	r3, #4
 80029cc:	8427      	strh	r7, [r4, #32]
 80029ce:	e021      	b.n	8002a14 <I2C_Init+0x94>
 80029d0:	88ee      	ldrh	r6, [r5, #6]
 80029d2:	f64b 72ff 	movw	r2, #49151	; 0xbfff
 80029d6:	4296      	cmp	r6, r2
 80029d8:	d104      	bne.n	80029e4 <I2C_Init+0x64>
 80029da:	2203      	movs	r2, #3
 80029dc:	4353      	muls	r3, r2
 80029de:	fbb1 f3f3 	udiv	r3, r1, r3
 80029e2:	e005      	b.n	80029f0 <I2C_Init+0x70>
 80029e4:	2219      	movs	r2, #25
 80029e6:	4353      	muls	r3, r2
 80029e8:	fbb1 f3f3 	udiv	r3, r1, r3
 80029ec:	f443 4380 	orr.w	r3, r3, #16384	; 0x4000
 80029f0:	b29b      	uxth	r3, r3
 80029f2:	f3c3 020b 	ubfx	r2, r3, #0, #12
 80029f6:	b90a      	cbnz	r2, 80029fc <I2C_Init+0x7c>
 80029f8:	f043 0301 	orr.w	r3, r3, #1
 80029fc:	f44f 7296 	mov.w	r2, #300	; 0x12c
 8002a00:	4350      	muls	r0, r2
 8002a02:	f44f 727a 	mov.w	r2, #1000	; 0x3e8
 8002a06:	fb90 f0f2 	sdiv	r0, r0, r2
 8002a0a:	3001      	adds	r0, #1
 8002a0c:	b280      	uxth	r0, r0
 8002a0e:	f443 4300 	orr.w	r3, r3, #32768	; 0x8000
 8002a12:	8420      	strh	r0, [r4, #32]
 8002a14:	83a3      	strh	r3, [r4, #28]
 8002a16:	8823      	ldrh	r3, [r4, #0]
 8002a18:	8969      	ldrh	r1, [r5, #10]
 8002a1a:	b29b      	uxth	r3, r3
 8002a1c:	f043 0301 	orr.w	r3, r3, #1
 8002a20:	8023      	strh	r3, [r4, #0]
 8002a22:	8823      	ldrh	r3, [r4, #0]
 8002a24:	88aa      	ldrh	r2, [r5, #4]
 8002a26:	f423 6381 	bic.w	r3, r3, #1032	; 0x408
 8002a2a:	f023 0302 	bic.w	r3, r3, #2
 8002a2e:	041b      	lsls	r3, r3, #16
 8002a30:	430a      	orrs	r2, r1
 8002a32:	0c1b      	lsrs	r3, r3, #16
 8002a34:	4313      	orrs	r3, r2
 8002a36:	b29b      	uxth	r3, r3
 8002a38:	8023      	strh	r3, [r4, #0]
 8002a3a:	892a      	ldrh	r2, [r5, #8]
 8002a3c:	89ab      	ldrh	r3, [r5, #12]
 8002a3e:	4313      	orrs	r3, r2
 8002a40:	b29b      	uxth	r3, r3
 8002a42:	8123      	strh	r3, [r4, #8]
 8002a44:	b007      	add	sp, #28
 8002a46:	bdf0      	pop	{r4, r5, r6, r7, pc}
 8002a48:	000f4240 	.word	0x000f4240
 8002a4c:	000186a0 	.word	0x000186a0

08002a50 <I2C_StructInit>:
 8002a50:	f241 3388 	movw	r3, #5000	; 0x1388
 8002a54:	6003      	str	r3, [r0, #0]
 8002a56:	2300      	movs	r3, #0
 8002a58:	8083      	strh	r3, [r0, #4]
 8002a5a:	f64b 72ff 	movw	r2, #49151	; 0xbfff
 8002a5e:	8103      	strh	r3, [r0, #8]
 8002a60:	8143      	strh	r3, [r0, #10]
 8002a62:	f44f 4380 	mov.w	r3, #16384	; 0x4000
 8002a66:	80c2      	strh	r2, [r0, #6]
 8002a68:	8183      	strh	r3, [r0, #12]
 8002a6a:	4770      	bx	lr

08002a6c <I2C_Cmd>:
 8002a6c:	8803      	ldrh	r3, [r0, #0]
 8002a6e:	b119      	cbz	r1, 8002a78 <I2C_Cmd+0xc>
 8002a70:	b29b      	uxth	r3, r3
 8002a72:	f043 0301 	orr.w	r3, r3, #1
 8002a76:	e003      	b.n	8002a80 <I2C_Cmd+0x14>
 8002a78:	f023 0301 	bic.w	r3, r3, #1
 8002a7c:	041b      	lsls	r3, r3, #16
 8002a7e:	0c1b      	lsrs	r3, r3, #16
 8002a80:	8003      	strh	r3, [r0, #0]
 8002a82:	4770      	bx	lr

08002a84 <I2C_DMACmd>:
 8002a84:	8883      	ldrh	r3, [r0, #4]
 8002a86:	b119      	cbz	r1, 8002a90 <I2C_DMACmd+0xc>
 8002a88:	b29b      	uxth	r3, r3
 8002a8a:	f443 6300 	orr.w	r3, r3, #2048	; 0x800
 8002a8e:	e003      	b.n	8002a98 <I2C_DMACmd+0x14>
 8002a90:	f423 6300 	bic.w	r3, r3, #2048	; 0x800
 8002a94:	041b      	lsls	r3, r3, #16
 8002a96:	0c1b      	lsrs	r3, r3, #16
 8002a98:	8083      	strh	r3, [r0, #4]
 8002a9a:	4770      	bx	lr

08002a9c <I2C_DMALastTransferCmd>:
 8002a9c:	8883      	ldrh	r3, [r0, #4]
 8002a9e:	b119      	cbz	r1, 8002aa8 <I2C_DMALastTransferCmd+0xc>
 8002aa0:	b29b      	uxth	r3, r3
 8002aa2:	f443 5380 	orr.w	r3, r3, #4096	; 0x1000
 8002aa6:	e003      	b.n	8002ab0 <I2C_DMALastTransferCmd+0x14>
 8002aa8:	f423 5380 	bic.w	r3, r3, #4096	; 0x1000
 8002aac:	041b      	lsls	r3, r3, #16
 8002aae:	0c1b      	lsrs	r3, r3, #16
 8002ab0:	8083      	strh	r3, [r0, #4]
 8002ab2:	4770      	bx	lr

08002ab4 <I2C_GenerateSTART>:
 8002ab4:	8803      	ldrh	r3, [r0, #0]
 8002ab6:	b119      	cbz	r1, 8002ac0 <I2C_GenerateSTART+0xc>
 8002ab8:	b29b      	uxth	r3, r3
 8002aba:	f443 7380 	orr.w	r3, r3, #256	; 0x100
 8002abe:	e003      	b.n	8002ac8 <I2C_GenerateSTART+0x14>
 8002ac0:	f423 7380 	bic.w	r3, r3, #256	; 0x100
 8002ac4:	041b      	lsls	r3, r3, #16
 8002ac6:	0c1b      	lsrs	r3, r3, #16
 8002ac8:	8003      	strh	r3, [r0, #0]
 8002aca:	4770      	bx	lr

08002acc <I2C_GenerateSTOP>:
 8002acc:	8803      	ldrh	r3, [r0, #0]
 8002ace:	b119      	cbz	r1, 8002ad8 <I2C_GenerateSTOP+0xc>
 8002ad0:	b29b      	uxth	r3, r3
 8002ad2:	f443 7300 	orr.w	r3, r3, #512	; 0x200
 8002ad6:	e003      	b.n	8002ae0 <I2C_GenerateSTOP+0x14>
 8002ad8:	f423 7300 	bic.w	r3, r3, #512	; 0x200
 8002adc:	041b      	lsls	r3, r3, #16
 8002ade:	0c1b      	lsrs	r3, r3, #16
 8002ae0:	8003      	strh	r3, [r0, #0]
 8002ae2:	4770      	bx	lr

08002ae4 <I2C_AcknowledgeConfig>:
 8002ae4:	8803      	ldrh	r3, [r0, #0]
 8002ae6:	b119      	cbz	r1, 8002af0 <I2C_AcknowledgeConfig+0xc>
 8002ae8:	b29b      	uxth	r3, r3
 8002aea:	f443 6380 	orr.w	r3, r3, #1024	; 0x400
 8002aee:	e003      	b.n	8002af8 <I2C_AcknowledgeConfig+0x14>
 8002af0:	f423 6380 	bic.w	r3, r3, #1024	; 0x400
 8002af4:	041b      	lsls	r3, r3, #16
 8002af6:	0c1b      	lsrs	r3, r3, #16
 8002af8:	8003      	strh	r3, [r0, #0]
 8002afa:	4770      	bx	lr

08002afc <I2C_OwnAddress2Config>:
 8002afc:	8983      	ldrh	r3, [r0, #12]
 8002afe:	f001 01fe 	and.w	r1, r1, #254	; 0xfe
 8002b02:	b29b      	uxth	r3, r3
 8002b04:	f023 03fe 	bic.w	r3, r3, #254	; 0xfe
 8002b08:	430b      	orrs	r3, r1
 8002b0a:	8183      	strh	r3, [r0, #12]
 8002b0c:	4770      	bx	lr

08002b0e <I2C_DualAddressCmd>:
 8002b0e:	8983      	ldrh	r3, [r0, #12]
 8002b10:	b119      	cbz	r1, 8002b1a <I2C_DualAddressCmd+0xc>
 8002b12:	b29b      	uxth	r3, r3
 8002b14:	f043 0301 	orr.w	r3, r3, #1
 8002b18:	e003      	b.n	8002b22 <I2C_DualAddressCmd+0x14>
 8002b1a:	f023 0301 	bic.w	r3, r3, #1
 8002b1e:	041b      	lsls	r3, r3, #16
 8002b20:	0c1b      	lsrs	r3, r3, #16
 8002b22:	8183      	strh	r3, [r0, #12]
 8002b24:	4770      	bx	lr

08002b26 <I2C_GeneralCallCmd>:
 8002b26:	8803      	ldrh	r3, [r0, #0]
 8002b28:	b119      	cbz	r1, 8002b32 <I2C_GeneralCallCmd+0xc>
 8002b2a:	b29b      	uxth	r3, r3
 8002b2c:	f043 0340 	orr.w	r3, r3, #64	; 0x40
 8002b30:	e003      	b.n	8002b3a <I2C_GeneralCallCmd+0x14>
 8002b32:	f023 0340 	bic.w	r3, r3, #64	; 0x40
 8002b36:	041b      	lsls	r3, r3, #16
 8002b38:	0c1b      	lsrs	r3, r3, #16
 8002b3a:	8003      	strh	r3, [r0, #0]
 8002b3c:	4770      	bx	lr

08002b3e <I2C_ITConfig>:
 8002b3e:	8883      	ldrh	r3, [r0, #4]
 8002b40:	b29b      	uxth	r3, r3
 8002b42:	b10a      	cbz	r2, 8002b48 <I2C_ITConfig+0xa>
 8002b44:	4319      	orrs	r1, r3
 8002b46:	e001      	b.n	8002b4c <I2C_ITConfig+0xe>
 8002b48:	ea23 0101 	bic.w	r1, r3, r1
 8002b4c:	8081      	strh	r1, [r0, #4]
 8002b4e:	4770      	bx	lr

08002b50 <I2C_SendData>:
 8002b50:	8201      	strh	r1, [r0, #16]
 8002b52:	4770      	bx	lr

08002b54 <I2C_ReceiveData>:
 8002b54:	8a00      	ldrh	r0, [r0, #16]
 8002b56:	b2c0      	uxtb	r0, r0
 8002b58:	4770      	bx	lr

08002b5a <I2C_Send7bitAddress>:
 8002b5a:	b112      	cbz	r2, 8002b62 <I2C_Send7bitAddress+0x8>
 8002b5c:	f041 0101 	orr.w	r1, r1, #1
 8002b60:	e001      	b.n	8002b66 <I2C_Send7bitAddress+0xc>
 8002b62:	f001 01fe 	and.w	r1, r1, #254	; 0xfe
 8002b66:	8201      	strh	r1, [r0, #16]
 8002b68:	4770      	bx	lr

08002b6a <I2C_ReadRegister>:
 8002b6a:	b082      	sub	sp, #8
 8002b6c:	2300      	movs	r3, #0
 8002b6e:	9301      	str	r3, [sp, #4]
 8002b70:	9001      	str	r0, [sp, #4]
 8002b72:	9b01      	ldr	r3, [sp, #4]
 8002b74:	18c9      	adds	r1, r1, r3
 8002b76:	9101      	str	r1, [sp, #4]
 8002b78:	9b01      	ldr	r3, [sp, #4]
 8002b7a:	8818      	ldrh	r0, [r3, #0]
 8002b7c:	b280      	uxth	r0, r0
 8002b7e:	b002      	add	sp, #8
 8002b80:	4770      	bx	lr

08002b82 <I2C_SoftwareResetCmd>:
 8002b82:	8803      	ldrh	r3, [r0, #0]
 8002b84:	b129      	cbz	r1, 8002b92 <I2C_SoftwareResetCmd+0x10>
 8002b86:	ea6f 4343 	mvn.w	r3, r3, lsl #17
 8002b8a:	ea6f 4353 	mvn.w	r3, r3, lsr #17
 8002b8e:	b29b      	uxth	r3, r3
 8002b90:	e001      	b.n	8002b96 <I2C_SoftwareResetCmd+0x14>
 8002b92:	f3c3 030e 	ubfx	r3, r3, #0, #15
 8002b96:	8003      	strh	r3, [r0, #0]
 8002b98:	4770      	bx	lr

08002b9a <I2C_SMBusAlertConfig>:
 8002b9a:	f5b1 5f00 	cmp.w	r1, #8192	; 0x2000
 8002b9e:	8803      	ldrh	r3, [r0, #0]
 8002ba0:	d103      	bne.n	8002baa <I2C_SMBusAlertConfig+0x10>
 8002ba2:	b29b      	uxth	r3, r3
 8002ba4:	f443 5300 	orr.w	r3, r3, #8192	; 0x2000
 8002ba8:	e003      	b.n	8002bb2 <I2C_SMBusAlertConfig+0x18>
 8002baa:	f423 5300 	bic.w	r3, r3, #8192	; 0x2000
 8002bae:	041b      	lsls	r3, r3, #16
 8002bb0:	0c1b      	lsrs	r3, r3, #16
 8002bb2:	8003      	strh	r3, [r0, #0]
 8002bb4:	4770      	bx	lr

08002bb6 <I2C_TransmitPEC>:
 8002bb6:	8803      	ldrh	r3, [r0, #0]
 8002bb8:	b119      	cbz	r1, 8002bc2 <I2C_TransmitPEC+0xc>
 8002bba:	b29b      	uxth	r3, r3
 8002bbc:	f443 5380 	orr.w	r3, r3, #4096	; 0x1000
 8002bc0:	e003      	b.n	8002bca <I2C_TransmitPEC+0x14>
 8002bc2:	f423 5380 	bic.w	r3, r3, #4096	; 0x1000
 8002bc6:	041b      	lsls	r3, r3, #16
 8002bc8:	0c1b      	lsrs	r3, r3, #16
 8002bca:	8003      	strh	r3, [r0, #0]
 8002bcc:	4770      	bx	lr

08002bce <I2C_PECPositionConfig>:
 8002bce:	f5b1 6f00 	cmp.w	r1, #2048	; 0x800
 8002bd2:	8803      	ldrh	r3, [r0, #0]
 8002bd4:	d103      	bne.n	8002bde <I2C_PECPositionConfig+0x10>
 8002bd6:	b29b      	uxth	r3, r3
 8002bd8:	f443 6300 	orr.w	r3, r3, #2048	; 0x800
 8002bdc:	e003      	b.n	8002be6 <I2C_PECPositionConfig+0x18>
 8002bde:	f423 6300 	bic.w	r3, r3, #2048	; 0x800
 8002be2:	041b      	lsls	r3, r3, #16
 8002be4:	0c1b      	lsrs	r3, r3, #16
 8002be6:	8003      	strh	r3, [r0, #0]
 8002be8:	4770      	bx	lr

08002bea <I2C_CalculatePEC>:
 8002bea:	8803      	ldrh	r3, [r0, #0]
 8002bec:	b119      	cbz	r1, 8002bf6 <I2C_CalculatePEC+0xc>
 8002bee:	b29b      	uxth	r3, r3
 8002bf0:	f043 0320 	orr.w	r3, r3, #32
 8002bf4:	e003      	b.n	8002bfe <I2C_CalculatePEC+0x14>
 8002bf6:	f023 0320 	bic.w	r3, r3, #32
 8002bfa:	041b      	lsls	r3, r3, #16
 8002bfc:	0c1b      	lsrs	r3, r3, #16
 8002bfe:	8003      	strh	r3, [r0, #0]
 8002c00:	4770      	bx	lr

08002c02 <I2C_GetPEC>:
 8002c02:	8b00      	ldrh	r0, [r0, #24]
 8002c04:	f3c0 2007 	ubfx	r0, r0, #8, #8
 8002c08:	4770      	bx	lr

08002c0a <I2C_ARPCmd>:
 8002c0a:	8803      	ldrh	r3, [r0, #0]
 8002c0c:	b119      	cbz	r1, 8002c16 <I2C_ARPCmd+0xc>
 8002c0e:	b29b      	uxth	r3, r3
 8002c10:	f043 0310 	orr.w	r3, r3, #16
 8002c14:	e003      	b.n	8002c1e <I2C_ARPCmd+0x14>
 8002c16:	f023 0310 	bic.w	r3, r3, #16
 8002c1a:	041b      	lsls	r3, r3, #16
 8002c1c:	0c1b      	lsrs	r3, r3, #16
 8002c1e:	8003      	strh	r3, [r0, #0]
 8002c20:	4770      	bx	lr

08002c22 <I2C_StretchClockCmd>:
 8002c22:	8803      	ldrh	r3, [r0, #0]
 8002c24:	b919      	cbnz	r1, 8002c2e <I2C_StretchClockCmd+0xc>
 8002c26:	b29b      	uxth	r3, r3
 8002c28:	f043 0380 	orr.w	r3, r3, #128	; 0x80
 8002c2c:	e003      	b.n	8002c36 <I2C_StretchClockCmd+0x14>
 8002c2e:	f023 0380 	bic.w	r3, r3, #128	; 0x80
 8002c32:	041b      	lsls	r3, r3, #16
 8002c34:	0c1b      	lsrs	r3, r3, #16
 8002c36:	8003      	strh	r3, [r0, #0]
 8002c38:	4770      	bx	lr

08002c3a <I2C_FastModeDutyCycleConfig>:
 8002c3a:	f5b1 4f80 	cmp.w	r1, #16384	; 0x4000
 8002c3e:	8b83      	ldrh	r3, [r0, #28]
 8002c40:	d004      	beq.n	8002c4c <I2C_FastModeDutyCycleConfig+0x12>
 8002c42:	f423 4380 	bic.w	r3, r3, #16384	; 0x4000
 8002c46:	041b      	lsls	r3, r3, #16
 8002c48:	0c1b      	lsrs	r3, r3, #16
 8002c4a:	e002      	b.n	8002c52 <I2C_FastModeDutyCycleConfig+0x18>
 8002c4c:	b29b      	uxth	r3, r3
 8002c4e:	f443 4380 	orr.w	r3, r3, #16384	; 0x4000
 8002c52:	8383      	strh	r3, [r0, #28]
 8002c54:	4770      	bx	lr

08002c56 <I2C_CheckEvent>:
 8002c56:	8a83      	ldrh	r3, [r0, #20]
 8002c58:	8b00      	ldrh	r0, [r0, #24]
 8002c5a:	b29b      	uxth	r3, r3
 8002c5c:	ea43 4000 	orr.w	r0, r3, r0, lsl #16
 8002c60:	4008      	ands	r0, r1
 8002c62:	f020 407f 	bic.w	r0, r0, #4278190080	; 0xff000000
 8002c66:	1a43      	subs	r3, r0, r1
 8002c68:	4258      	negs	r0, r3
 8002c6a:	4158      	adcs	r0, r3
 8002c6c:	4770      	bx	lr

08002c6e <I2C_GetLastEvent>:
 8002c6e:	8a83      	ldrh	r3, [r0, #20]
 8002c70:	8b00      	ldrh	r0, [r0, #24]
 8002c72:	b29b      	uxth	r3, r3
 8002c74:	ea43 4000 	orr.w	r0, r3, r0, lsl #16
 8002c78:	f020 407f 	bic.w	r0, r0, #4278190080	; 0xff000000
 8002c7c:	4770      	bx	lr

08002c7e <I2C_GetFlagStatus>:
 8002c7e:	b082      	sub	sp, #8
 8002c80:	2300      	movs	r3, #0
 8002c82:	9300      	str	r3, [sp, #0]
 8002c84:	9301      	str	r3, [sp, #4]
 8002c86:	0f0b      	lsrs	r3, r1, #28
 8002c88:	9001      	str	r0, [sp, #4]
 8002c8a:	9300      	str	r3, [sp, #0]
 8002c8c:	9b00      	ldr	r3, [sp, #0]
 8002c8e:	f021 417f 	bic.w	r1, r1, #4278190080	; 0xff000000
 8002c92:	b113      	cbz	r3, 8002c9a <I2C_GetFlagStatus+0x1c>
 8002c94:	9b01      	ldr	r3, [sp, #4]
 8002c96:	3314      	adds	r3, #20
 8002c98:	e002      	b.n	8002ca0 <I2C_GetFlagStatus+0x22>
 8002c9a:	9b01      	ldr	r3, [sp, #4]
 8002c9c:	0c09      	lsrs	r1, r1, #16
 8002c9e:	3318      	adds	r3, #24
 8002ca0:	9301      	str	r3, [sp, #4]
 8002ca2:	9b01      	ldr	r3, [sp, #4]
 8002ca4:	681b      	ldr	r3, [r3, #0]
 8002ca6:	4219      	tst	r1, r3
 8002ca8:	bf0c      	ite	eq
 8002caa:	2000      	moveq	r0, #0
 8002cac:	2001      	movne	r0, #1
 8002cae:	b002      	add	sp, #8
 8002cb0:	4770      	bx	lr

08002cb2 <I2C_ClearFlag>:
 8002cb2:	43c9      	mvns	r1, r1
 8002cb4:	b289      	uxth	r1, r1
 8002cb6:	8281      	strh	r1, [r0, #20]
 8002cb8:	4770      	bx	lr

08002cba <I2C_GetITStatus>:
 8002cba:	8883      	ldrh	r3, [r0, #4]
 8002cbc:	8a80      	ldrh	r0, [r0, #20]
 8002cbe:	b29b      	uxth	r3, r3
 8002cc0:	b280      	uxth	r0, r0
 8002cc2:	4008      	ands	r0, r1
 8002cc4:	d006      	beq.n	8002cd4 <I2C_GetITStatus+0x1a>
 8002cc6:	f001 61e0 	and.w	r1, r1, #117440512	; 0x7000000
 8002cca:	ea13 4111 	ands.w	r1, r3, r1, lsr #16
 8002cce:	bf0c      	ite	eq
 8002cd0:	2000      	moveq	r0, #0
 8002cd2:	2001      	movne	r0, #1
 8002cd4:	4770      	bx	lr

08002cd6 <I2C_ClearITPendingBit>:
 8002cd6:	43c9      	mvns	r1, r1
 8002cd8:	b289      	uxth	r1, r1
 8002cda:	8281      	strh	r1, [r0, #20]
 8002cdc:	4770      	bx	lr
 8002cde:	bf00      	nop

08002ce0 <NMI_Handler>:
 8002ce0:	4770      	bx	lr

08002ce2 <HardFault_Handler>:
 8002ce2:	e7fe      	b.n	8002ce2 <HardFault_Handler>

08002ce4 <MemManage_Handler>:
 8002ce4:	e7fe      	b.n	8002ce4 <MemManage_Handler>

08002ce6 <BusFault_Handler>:
 8002ce6:	e7fe      	b.n	8002ce6 <BusFault_Handler>

08002ce8 <UsageFault_Handler>:
 8002ce8:	e7fe      	b.n	8002ce8 <UsageFault_Handler>

08002cea <SVC_Handler>:
 8002cea:	4770      	bx	lr

08002cec <DebugMon_Handler>:
 8002cec:	4770      	bx	lr

08002cee <PendSV_Handler>:
 8002cee:	4770      	bx	lr

08002cf0 <SysTick_Handler>:
 8002cf0:	f7fd bf30 	b.w	8000b54 <TimingDelay_Decrement>

08002cf4 <I2C1_EV_IRQHandler>:
 8002cf4:	b513      	push	{r0, r1, r4, lr}
 8002cf6:	2300      	movs	r3, #0
 8002cf8:	9300      	str	r3, [sp, #0]
 8002cfa:	9301      	str	r3, [sp, #4]
 8002cfc:	4b6b      	ldr	r3, [pc, #428]	; (8002eac <I2C1_EV_IRQHandler+0x1b8>)
 8002cfe:	8a9a      	ldrh	r2, [r3, #20]
 8002d00:	b292      	uxth	r2, r2
 8002d02:	9200      	str	r2, [sp, #0]
 8002d04:	8b1b      	ldrh	r3, [r3, #24]
 8002d06:	b29b      	uxth	r3, r3
 8002d08:	9301      	str	r3, [sp, #4]
 8002d0a:	9b01      	ldr	r3, [sp, #4]
 8002d0c:	f013 0301 	ands.w	r3, r3, #1
 8002d10:	d133      	bne.n	8002d7a <I2C1_EV_IRQHandler+0x86>
 8002d12:	9a00      	ldr	r2, [sp, #0]
 8002d14:	0790      	lsls	r0, r2, #30
 8002d16:	d504      	bpl.n	8002d22 <I2C1_EV_IRQHandler+0x2e>
 8002d18:	4a65      	ldr	r2, [pc, #404]	; (8002eb0 <I2C1_EV_IRQHandler+0x1bc>)
 8002d1a:	9300      	str	r3, [sp, #0]
 8002d1c:	9301      	str	r3, [sp, #4]
 8002d1e:	7013      	strb	r3, [r2, #0]
 8002d20:	7053      	strb	r3, [r2, #1]
 8002d22:	9b00      	ldr	r3, [sp, #0]
 8002d24:	0619      	lsls	r1, r3, #24
 8002d26:	d50c      	bpl.n	8002d42 <I2C1_EV_IRQHandler+0x4e>
 8002d28:	4b61      	ldr	r3, [pc, #388]	; (8002eb0 <I2C1_EV_IRQHandler+0x1bc>)
 8002d2a:	4962      	ldr	r1, [pc, #392]	; (8002eb4 <I2C1_EV_IRQHandler+0x1c0>)
 8002d2c:	781a      	ldrb	r2, [r3, #0]
 8002d2e:	b2d2      	uxtb	r2, r2
 8002d30:	5c88      	ldrb	r0, [r1, r2]
 8002d32:	495e      	ldr	r1, [pc, #376]	; (8002eac <I2C1_EV_IRQHandler+0x1b8>)
 8002d34:	3201      	adds	r2, #1
 8002d36:	b2d2      	uxtb	r2, r2
 8002d38:	8208      	strh	r0, [r1, #16]
 8002d3a:	701a      	strb	r2, [r3, #0]
 8002d3c:	2300      	movs	r3, #0
 8002d3e:	9300      	str	r3, [sp, #0]
 8002d40:	9301      	str	r3, [sp, #4]
 8002d42:	9b00      	ldr	r3, [sp, #0]
 8002d44:	065a      	lsls	r2, r3, #25
 8002d46:	d50c      	bpl.n	8002d62 <I2C1_EV_IRQHandler+0x6e>
 8002d48:	4b59      	ldr	r3, [pc, #356]	; (8002eb0 <I2C1_EV_IRQHandler+0x1bc>)
 8002d4a:	4958      	ldr	r1, [pc, #352]	; (8002eac <I2C1_EV_IRQHandler+0x1b8>)
 8002d4c:	785a      	ldrb	r2, [r3, #1]
 8002d4e:	8a08      	ldrh	r0, [r1, #16]
 8002d50:	4959      	ldr	r1, [pc, #356]	; (8002eb8 <I2C1_EV_IRQHandler+0x1c4>)
 8002d52:	b2d2      	uxtb	r2, r2
 8002d54:	5488      	strb	r0, [r1, r2]
 8002d56:	3201      	adds	r2, #1
 8002d58:	b2d2      	uxtb	r2, r2
 8002d5a:	705a      	strb	r2, [r3, #1]
 8002d5c:	2300      	movs	r3, #0
 8002d5e:	9300      	str	r3, [sp, #0]
 8002d60:	9301      	str	r3, [sp, #4]
 8002d62:	9b00      	ldr	r3, [sp, #0]
 8002d64:	06db      	lsls	r3, r3, #27
 8002d66:	d508      	bpl.n	8002d7a <I2C1_EV_IRQHandler+0x86>
 8002d68:	4b50      	ldr	r3, [pc, #320]	; (8002eac <I2C1_EV_IRQHandler+0x1b8>)
 8002d6a:	881a      	ldrh	r2, [r3, #0]
 8002d6c:	b292      	uxth	r2, r2
 8002d6e:	f042 0201 	orr.w	r2, r2, #1
 8002d72:	801a      	strh	r2, [r3, #0]
 8002d74:	2300      	movs	r3, #0
 8002d76:	9300      	str	r3, [sp, #0]
 8002d78:	9301      	str	r3, [sp, #4]
 8002d7a:	9b00      	ldr	r3, [sp, #0]
 8002d7c:	07d8      	lsls	r0, r3, #31
 8002d7e:	d506      	bpl.n	8002d8e <I2C1_EV_IRQHandler+0x9a>
 8002d80:	4b4e      	ldr	r3, [pc, #312]	; (8002ebc <I2C1_EV_IRQHandler+0x1c8>)
 8002d82:	781a      	ldrb	r2, [r3, #0]
 8002d84:	4b49      	ldr	r3, [pc, #292]	; (8002eac <I2C1_EV_IRQHandler+0x1b8>)
 8002d86:	821a      	strh	r2, [r3, #16]
 8002d88:	2300      	movs	r3, #0
 8002d8a:	9300      	str	r3, [sp, #0]
 8002d8c:	9301      	str	r3, [sp, #4]
 8002d8e:	9b01      	ldr	r3, [sp, #4]
 8002d90:	07d9      	lsls	r1, r3, #31
 8002d92:	f140 8089 	bpl.w	8002ea8 <I2C1_EV_IRQHandler+0x1b4>
 8002d96:	9b00      	ldr	r3, [sp, #0]
 8002d98:	079a      	lsls	r2, r3, #30
 8002d9a:	d52f      	bpl.n	8002dfc <I2C1_EV_IRQHandler+0x108>
 8002d9c:	4b48      	ldr	r3, [pc, #288]	; (8002ec0 <I2C1_EV_IRQHandler+0x1cc>)
 8002d9e:	681a      	ldr	r2, [r3, #0]
 8002da0:	4b43      	ldr	r3, [pc, #268]	; (8002eb0 <I2C1_EV_IRQHandler+0x1bc>)
 8002da2:	b9b2      	cbnz	r2, 8002dd2 <I2C1_EV_IRQHandler+0xde>
 8002da4:	701a      	strb	r2, [r3, #0]
 8002da6:	7819      	ldrb	r1, [r3, #0]
 8002da8:	4a42      	ldr	r2, [pc, #264]	; (8002eb4 <I2C1_EV_IRQHandler+0x1c0>)
 8002daa:	b2c9      	uxtb	r1, r1
 8002dac:	5c50      	ldrb	r0, [r2, r1]
 8002dae:	4a3f      	ldr	r2, [pc, #252]	; (8002eac <I2C1_EV_IRQHandler+0x1b8>)
 8002db0:	3101      	adds	r1, #1
 8002db2:	b2c9      	uxtb	r1, r1
 8002db4:	8210      	strh	r0, [r2, #16]
 8002db6:	7019      	strb	r1, [r3, #0]
 8002db8:	4b42      	ldr	r3, [pc, #264]	; (8002ec4 <I2C1_EV_IRQHandler+0x1d0>)
 8002dba:	6819      	ldr	r1, [r3, #0]
 8002dbc:	3901      	subs	r1, #1
 8002dbe:	6019      	str	r1, [r3, #0]
 8002dc0:	681b      	ldr	r3, [r3, #0]
 8002dc2:	b9c3      	cbnz	r3, 8002df6 <I2C1_EV_IRQHandler+0x102>
 8002dc4:	8893      	ldrh	r3, [r2, #4]
 8002dc6:	f423 6380 	bic.w	r3, r3, #1024	; 0x400
 8002dca:	041b      	lsls	r3, r3, #16
 8002dcc:	0c1b      	lsrs	r3, r3, #16
 8002dce:	8093      	strh	r3, [r2, #4]
 8002dd0:	e011      	b.n	8002df6 <I2C1_EV_IRQHandler+0x102>
 8002dd2:	2200      	movs	r2, #0
 8002dd4:	705a      	strb	r2, [r3, #1]
 8002dd6:	4b3b      	ldr	r3, [pc, #236]	; (8002ec4 <I2C1_EV_IRQHandler+0x1d0>)
 8002dd8:	681b      	ldr	r3, [r3, #0]
 8002dda:	2b01      	cmp	r3, #1
 8002ddc:	d10b      	bne.n	8002df6 <I2C1_EV_IRQHandler+0x102>
 8002dde:	4a33      	ldr	r2, [pc, #204]	; (8002eac <I2C1_EV_IRQHandler+0x1b8>)
 8002de0:	8813      	ldrh	r3, [r2, #0]
 8002de2:	f423 6380 	bic.w	r3, r3, #1024	; 0x400
 8002de6:	041b      	lsls	r3, r3, #16
 8002de8:	0c1b      	lsrs	r3, r3, #16
 8002dea:	8013      	strh	r3, [r2, #0]
 8002dec:	8813      	ldrh	r3, [r2, #0]
 8002dee:	b29b      	uxth	r3, r3
 8002df0:	f443 7300 	orr.w	r3, r3, #512	; 0x200
 8002df4:	8013      	strh	r3, [r2, #0]
 8002df6:	2300      	movs	r3, #0
 8002df8:	9300      	str	r3, [sp, #0]
 8002dfa:	9301      	str	r3, [sp, #4]
 8002dfc:	9b00      	ldr	r3, [sp, #0]
 8002dfe:	f003 0384 	and.w	r3, r3, #132	; 0x84
 8002e02:	2b80      	cmp	r3, #128	; 0x80
 8002e04:	d11a      	bne.n	8002e3c <I2C1_EV_IRQHandler+0x148>
 8002e06:	4b2f      	ldr	r3, [pc, #188]	; (8002ec4 <I2C1_EV_IRQHandler+0x1d0>)
 8002e08:	681a      	ldr	r2, [r3, #0]
 8002e0a:	b1a2      	cbz	r2, 8002e36 <I2C1_EV_IRQHandler+0x142>
 8002e0c:	4928      	ldr	r1, [pc, #160]	; (8002eb0 <I2C1_EV_IRQHandler+0x1bc>)
 8002e0e:	4a29      	ldr	r2, [pc, #164]	; (8002eb4 <I2C1_EV_IRQHandler+0x1c0>)
 8002e10:	7808      	ldrb	r0, [r1, #0]
 8002e12:	b2c0      	uxtb	r0, r0
 8002e14:	5c14      	ldrb	r4, [r2, r0]
 8002e16:	4a25      	ldr	r2, [pc, #148]	; (8002eac <I2C1_EV_IRQHandler+0x1b8>)
 8002e18:	3001      	adds	r0, #1
 8002e1a:	b2c0      	uxtb	r0, r0
 8002e1c:	8214      	strh	r4, [r2, #16]
 8002e1e:	7008      	strb	r0, [r1, #0]
 8002e20:	6819      	ldr	r1, [r3, #0]
 8002e22:	3901      	subs	r1, #1
 8002e24:	6019      	str	r1, [r3, #0]
 8002e26:	681b      	ldr	r3, [r3, #0]
 8002e28:	b92b      	cbnz	r3, 8002e36 <I2C1_EV_IRQHandler+0x142>
 8002e2a:	8893      	ldrh	r3, [r2, #4]
 8002e2c:	f423 6380 	bic.w	r3, r3, #1024	; 0x400
 8002e30:	041b      	lsls	r3, r3, #16
 8002e32:	0c1b      	lsrs	r3, r3, #16
 8002e34:	8093      	strh	r3, [r2, #4]
 8002e36:	2300      	movs	r3, #0
 8002e38:	9300      	str	r3, [sp, #0]
 8002e3a:	9301      	str	r3, [sp, #4]
 8002e3c:	9b00      	ldr	r3, [sp, #0]
 8002e3e:	f003 0384 	and.w	r3, r3, #132	; 0x84
 8002e42:	2b84      	cmp	r3, #132	; 0x84
 8002e44:	d10e      	bne.n	8002e64 <I2C1_EV_IRQHandler+0x170>
 8002e46:	4a19      	ldr	r2, [pc, #100]	; (8002eac <I2C1_EV_IRQHandler+0x1b8>)
 8002e48:	8813      	ldrh	r3, [r2, #0]
 8002e4a:	b29b      	uxth	r3, r3
 8002e4c:	f443 7300 	orr.w	r3, r3, #512	; 0x200
 8002e50:	8013      	strh	r3, [r2, #0]
 8002e52:	8893      	ldrh	r3, [r2, #4]
 8002e54:	f423 7300 	bic.w	r3, r3, #512	; 0x200
 8002e58:	041b      	lsls	r3, r3, #16
 8002e5a:	0c1b      	lsrs	r3, r3, #16
 8002e5c:	8093      	strh	r3, [r2, #4]
 8002e5e:	2300      	movs	r3, #0
 8002e60:	9300      	str	r3, [sp, #0]
 8002e62:	9301      	str	r3, [sp, #4]
 8002e64:	9b00      	ldr	r3, [sp, #0]
 8002e66:	065b      	lsls	r3, r3, #25
 8002e68:	d51e      	bpl.n	8002ea8 <I2C1_EV_IRQHandler+0x1b4>
 8002e6a:	4a11      	ldr	r2, [pc, #68]	; (8002eb0 <I2C1_EV_IRQHandler+0x1bc>)
 8002e6c:	4b0f      	ldr	r3, [pc, #60]	; (8002eac <I2C1_EV_IRQHandler+0x1b8>)
 8002e6e:	7851      	ldrb	r1, [r2, #1]
 8002e70:	4811      	ldr	r0, [pc, #68]	; (8002eb8 <I2C1_EV_IRQHandler+0x1c4>)
 8002e72:	8a1c      	ldrh	r4, [r3, #16]
 8002e74:	b2c9      	uxtb	r1, r1
 8002e76:	5444      	strb	r4, [r0, r1]
 8002e78:	3101      	adds	r1, #1
 8002e7a:	b2c9      	uxtb	r1, r1
 8002e7c:	7051      	strb	r1, [r2, #1]
 8002e7e:	4a11      	ldr	r2, [pc, #68]	; (8002ec4 <I2C1_EV_IRQHandler+0x1d0>)
 8002e80:	6811      	ldr	r1, [r2, #0]
 8002e82:	3901      	subs	r1, #1
 8002e84:	6011      	str	r1, [r2, #0]
 8002e86:	6812      	ldr	r2, [r2, #0]
 8002e88:	2a01      	cmp	r2, #1
 8002e8a:	d10a      	bne.n	8002ea2 <I2C1_EV_IRQHandler+0x1ae>
 8002e8c:	881a      	ldrh	r2, [r3, #0]
 8002e8e:	f422 6280 	bic.w	r2, r2, #1024	; 0x400
 8002e92:	0412      	lsls	r2, r2, #16
 8002e94:	0c12      	lsrs	r2, r2, #16
 8002e96:	801a      	strh	r2, [r3, #0]
 8002e98:	881a      	ldrh	r2, [r3, #0]
 8002e9a:	b292      	uxth	r2, r2
 8002e9c:	f442 7200 	orr.w	r2, r2, #512	; 0x200
 8002ea0:	801a      	strh	r2, [r3, #0]
 8002ea2:	2300      	movs	r3, #0
 8002ea4:	9300      	str	r3, [sp, #0]
 8002ea6:	9301      	str	r3, [sp, #4]
 8002ea8:	bd1c      	pop	{r2, r3, r4, pc}
 8002eaa:	bf00      	nop
 8002eac:	40005400 	.word	0x40005400
 8002eb0:	20000234 	.word	0x20000234
 8002eb4:	20000000 	.word	0x20000000
 8002eb8:	20000400 	.word	0x20000400
 8002ebc:	20000264 	.word	0x20000264
 8002ec0:	20000228 	.word	0x20000228
 8002ec4:	2000026c 	.word	0x2000026c

08002ec8 <I2C2_EV_IRQHandler>:
 8002ec8:	b513      	push	{r0, r1, r4, lr}
 8002eca:	2300      	movs	r3, #0
 8002ecc:	9300      	str	r3, [sp, #0]
 8002ece:	9301      	str	r3, [sp, #4]
 8002ed0:	4b6b      	ldr	r3, [pc, #428]	; (8003080 <I2C2_EV_IRQHandler+0x1b8>)
 8002ed2:	8a9a      	ldrh	r2, [r3, #20]
 8002ed4:	b292      	uxth	r2, r2
 8002ed6:	9200      	str	r2, [sp, #0]
 8002ed8:	8b1b      	ldrh	r3, [r3, #24]
 8002eda:	b29b      	uxth	r3, r3
 8002edc:	9301      	str	r3, [sp, #4]
 8002ede:	9b01      	ldr	r3, [sp, #4]
 8002ee0:	f013 0301 	ands.w	r3, r3, #1
 8002ee4:	d133      	bne.n	8002f4e <I2C2_EV_IRQHandler+0x86>
 8002ee6:	9a00      	ldr	r2, [sp, #0]
 8002ee8:	0790      	lsls	r0, r2, #30
 8002eea:	d504      	bpl.n	8002ef6 <I2C2_EV_IRQHandler+0x2e>
 8002eec:	4a65      	ldr	r2, [pc, #404]	; (8003084 <I2C2_EV_IRQHandler+0x1bc>)
 8002eee:	9300      	str	r3, [sp, #0]
 8002ef0:	9301      	str	r3, [sp, #4]
 8002ef2:	7093      	strb	r3, [r2, #2]
 8002ef4:	70d3      	strb	r3, [r2, #3]
 8002ef6:	9b00      	ldr	r3, [sp, #0]
 8002ef8:	0619      	lsls	r1, r3, #24
 8002efa:	d50c      	bpl.n	8002f16 <I2C2_EV_IRQHandler+0x4e>
 8002efc:	4b61      	ldr	r3, [pc, #388]	; (8003084 <I2C2_EV_IRQHandler+0x1bc>)
 8002efe:	4962      	ldr	r1, [pc, #392]	; (8003088 <I2C2_EV_IRQHandler+0x1c0>)
 8002f00:	789a      	ldrb	r2, [r3, #2]
 8002f02:	b2d2      	uxtb	r2, r2
 8002f04:	5c88      	ldrb	r0, [r1, r2]
 8002f06:	495e      	ldr	r1, [pc, #376]	; (8003080 <I2C2_EV_IRQHandler+0x1b8>)
 8002f08:	3201      	adds	r2, #1
 8002f0a:	b2d2      	uxtb	r2, r2
 8002f0c:	8208      	strh	r0, [r1, #16]
 8002f0e:	709a      	strb	r2, [r3, #2]
 8002f10:	2300      	movs	r3, #0
 8002f12:	9300      	str	r3, [sp, #0]
 8002f14:	9301      	str	r3, [sp, #4]
 8002f16:	9b00      	ldr	r3, [sp, #0]
 8002f18:	065a      	lsls	r2, r3, #25
 8002f1a:	d50c      	bpl.n	8002f36 <I2C2_EV_IRQHandler+0x6e>
 8002f1c:	4b59      	ldr	r3, [pc, #356]	; (8003084 <I2C2_EV_IRQHandler+0x1bc>)
 8002f1e:	4958      	ldr	r1, [pc, #352]	; (8003080 <I2C2_EV_IRQHandler+0x1b8>)
 8002f20:	78da      	ldrb	r2, [r3, #3]
 8002f22:	8a08      	ldrh	r0, [r1, #16]
 8002f24:	4959      	ldr	r1, [pc, #356]	; (800308c <I2C2_EV_IRQHandler+0x1c4>)
 8002f26:	b2d2      	uxtb	r2, r2
 8002f28:	5488      	strb	r0, [r1, r2]
 8002f2a:	3201      	adds	r2, #1
 8002f2c:	b2d2      	uxtb	r2, r2
 8002f2e:	70da      	strb	r2, [r3, #3]
 8002f30:	2300      	movs	r3, #0
 8002f32:	9300      	str	r3, [sp, #0]
 8002f34:	9301      	str	r3, [sp, #4]
 8002f36:	9b00      	ldr	r3, [sp, #0]
 8002f38:	06db      	lsls	r3, r3, #27
 8002f3a:	d508      	bpl.n	8002f4e <I2C2_EV_IRQHandler+0x86>
 8002f3c:	4b50      	ldr	r3, [pc, #320]	; (8003080 <I2C2_EV_IRQHandler+0x1b8>)
 8002f3e:	881a      	ldrh	r2, [r3, #0]
 8002f40:	b292      	uxth	r2, r2
 8002f42:	f042 0201 	orr.w	r2, r2, #1
 8002f46:	801a      	strh	r2, [r3, #0]
 8002f48:	2300      	movs	r3, #0
 8002f4a:	9300      	str	r3, [sp, #0]
 8002f4c:	9301      	str	r3, [sp, #4]
 8002f4e:	9b00      	ldr	r3, [sp, #0]
 8002f50:	07d8      	lsls	r0, r3, #31
 8002f52:	d506      	bpl.n	8002f62 <I2C2_EV_IRQHandler+0x9a>
 8002f54:	4b4e      	ldr	r3, [pc, #312]	; (8003090 <I2C2_EV_IRQHandler+0x1c8>)
 8002f56:	781a      	ldrb	r2, [r3, #0]
 8002f58:	4b49      	ldr	r3, [pc, #292]	; (8003080 <I2C2_EV_IRQHandler+0x1b8>)
 8002f5a:	821a      	strh	r2, [r3, #16]
 8002f5c:	2300      	movs	r3, #0
 8002f5e:	9300      	str	r3, [sp, #0]
 8002f60:	9301      	str	r3, [sp, #4]
 8002f62:	9b01      	ldr	r3, [sp, #4]
 8002f64:	07d9      	lsls	r1, r3, #31
 8002f66:	f140 8089 	bpl.w	800307c <I2C2_EV_IRQHandler+0x1b4>
 8002f6a:	9b00      	ldr	r3, [sp, #0]
 8002f6c:	079a      	lsls	r2, r3, #30
 8002f6e:	d52f      	bpl.n	8002fd0 <I2C2_EV_IRQHandler+0x108>
 8002f70:	4b48      	ldr	r3, [pc, #288]	; (8003094 <I2C2_EV_IRQHandler+0x1cc>)
 8002f72:	681a      	ldr	r2, [r3, #0]
 8002f74:	4b43      	ldr	r3, [pc, #268]	; (8003084 <I2C2_EV_IRQHandler+0x1bc>)
 8002f76:	b9b2      	cbnz	r2, 8002fa6 <I2C2_EV_IRQHandler+0xde>
 8002f78:	709a      	strb	r2, [r3, #2]
 8002f7a:	7899      	ldrb	r1, [r3, #2]
 8002f7c:	4a46      	ldr	r2, [pc, #280]	; (8003098 <I2C2_EV_IRQHandler+0x1d0>)
 8002f7e:	b2c9      	uxtb	r1, r1
 8002f80:	5c50      	ldrb	r0, [r2, r1]
 8002f82:	4a3f      	ldr	r2, [pc, #252]	; (8003080 <I2C2_EV_IRQHandler+0x1b8>)
 8002f84:	3101      	adds	r1, #1
 8002f86:	b2c9      	uxtb	r1, r1
 8002f88:	8210      	strh	r0, [r2, #16]
 8002f8a:	7099      	strb	r1, [r3, #2]
 8002f8c:	4b43      	ldr	r3, [pc, #268]	; (800309c <I2C2_EV_IRQHandler+0x1d4>)
 8002f8e:	6819      	ldr	r1, [r3, #0]
 8002f90:	3901      	subs	r1, #1
 8002f92:	6019      	str	r1, [r3, #0]
 8002f94:	681b      	ldr	r3, [r3, #0]
 8002f96:	b9c3      	cbnz	r3, 8002fca <I2C2_EV_IRQHandler+0x102>
 8002f98:	8893      	ldrh	r3, [r2, #4]
 8002f9a:	f423 6380 	bic.w	r3, r3, #1024	; 0x400
 8002f9e:	041b      	lsls	r3, r3, #16
 8002fa0:	0c1b      	lsrs	r3, r3, #16
 8002fa2:	8093      	strh	r3, [r2, #4]
 8002fa4:	e011      	b.n	8002fca <I2C2_EV_IRQHandler+0x102>
 8002fa6:	2200      	movs	r2, #0
 8002fa8:	70da      	strb	r2, [r3, #3]
 8002faa:	4b3c      	ldr	r3, [pc, #240]	; (800309c <I2C2_EV_IRQHandler+0x1d4>)
 8002fac:	681b      	ldr	r3, [r3, #0]
 8002fae:	2b01      	cmp	r3, #1
 8002fb0:	d10b      	bne.n	8002fca <I2C2_EV_IRQHandler+0x102>
 8002fb2:	4a33      	ldr	r2, [pc, #204]	; (8003080 <I2C2_EV_IRQHandler+0x1b8>)
 8002fb4:	8813      	ldrh	r3, [r2, #0]
 8002fb6:	f423 6380 	bic.w	r3, r3, #1024	; 0x400
 8002fba:	041b      	lsls	r3, r3, #16
 8002fbc:	0c1b      	lsrs	r3, r3, #16
 8002fbe:	8013      	strh	r3, [r2, #0]
 8002fc0:	8813      	ldrh	r3, [r2, #0]
 8002fc2:	b29b      	uxth	r3, r3
 8002fc4:	f443 7300 	orr.w	r3, r3, #512	; 0x200
 8002fc8:	8013      	strh	r3, [r2, #0]
 8002fca:	2300      	movs	r3, #0
 8002fcc:	9300      	str	r3, [sp, #0]
 8002fce:	9301      	str	r3, [sp, #4]
 8002fd0:	9b00      	ldr	r3, [sp, #0]
 8002fd2:	f003 0384 	and.w	r3, r3, #132	; 0x84
 8002fd6:	2b80      	cmp	r3, #128	; 0x80
 8002fd8:	d11a      	bne.n	8003010 <I2C2_EV_IRQHandler+0x148>
 8002fda:	4b30      	ldr	r3, [pc, #192]	; (800309c <I2C2_EV_IRQHandler+0x1d4>)
 8002fdc:	681a      	ldr	r2, [r3, #0]
 8002fde:	b1a2      	cbz	r2, 800300a <I2C2_EV_IRQHandler+0x142>
 8002fe0:	4928      	ldr	r1, [pc, #160]	; (8003084 <I2C2_EV_IRQHandler+0x1bc>)
 8002fe2:	4a29      	ldr	r2, [pc, #164]	; (8003088 <I2C2_EV_IRQHandler+0x1c0>)
 8002fe4:	7888      	ldrb	r0, [r1, #2]
 8002fe6:	b2c0      	uxtb	r0, r0
 8002fe8:	5c14      	ldrb	r4, [r2, r0]
 8002fea:	4a25      	ldr	r2, [pc, #148]	; (8003080 <I2C2_EV_IRQHandler+0x1b8>)
 8002fec:	3001      	adds	r0, #1
 8002fee:	b2c0      	uxtb	r0, r0
 8002ff0:	8214      	strh	r4, [r2, #16]
 8002ff2:	7088      	strb	r0, [r1, #2]
 8002ff4:	6819      	ldr	r1, [r3, #0]
 8002ff6:	3901      	subs	r1, #1
 8002ff8:	6019      	str	r1, [r3, #0]
 8002ffa:	681b      	ldr	r3, [r3, #0]
 8002ffc:	b92b      	cbnz	r3, 800300a <I2C2_EV_IRQHandler+0x142>
 8002ffe:	8893      	ldrh	r3, [r2, #4]
 8003000:	f423 6380 	bic.w	r3, r3, #1024	; 0x400
 8003004:	041b      	lsls	r3, r3, #16
 8003006:	0c1b      	lsrs	r3, r3, #16
 8003008:	8093      	strh	r3, [r2, #4]
 800300a:	2300      	movs	r3, #0
 800300c:	9300      	str	r3, [sp, #0]
 800300e:	9301      	str	r3, [sp, #4]
 8003010:	9b00      	ldr	r3, [sp, #0]
 8003012:	f003 0384 	and.w	r3, r3, #132	; 0x84
 8003016:	2b84      	cmp	r3, #132	; 0x84
 8003018:	d10e      	bne.n	8003038 <I2C2_EV_IRQHandler+0x170>
 800301a:	4a19      	ldr	r2, [pc, #100]	; (8003080 <I2C2_EV_IRQHandler+0x1b8>)
 800301c:	8813      	ldrh	r3, [r2, #0]
 800301e:	b29b      	uxth	r3, r3
 8003020:	f443 7300 	orr.w	r3, r3, #512	; 0x200
 8003024:	8013      	strh	r3, [r2, #0]
 8003026:	8893      	ldrh	r3, [r2, #4]
 8003028:	f423 7300 	bic.w	r3, r3, #512	; 0x200
 800302c:	041b      	lsls	r3, r3, #16
 800302e:	0c1b      	lsrs	r3, r3, #16
 8003030:	8093      	strh	r3, [r2, #4]
 8003032:	2300      	movs	r3, #0
 8003034:	9300      	str	r3, [sp, #0]
 8003036:	9301      	str	r3, [sp, #4]
 8003038:	9b00      	ldr	r3, [sp, #0]
 800303a:	065b      	lsls	r3, r3, #25
 800303c:	d51e      	bpl.n	800307c <I2C2_EV_IRQHandler+0x1b4>
 800303e:	4a11      	ldr	r2, [pc, #68]	; (8003084 <I2C2_EV_IRQHandler+0x1bc>)
 8003040:	4b0f      	ldr	r3, [pc, #60]	; (8003080 <I2C2_EV_IRQHandler+0x1b8>)
 8003042:	78d1      	ldrb	r1, [r2, #3]
 8003044:	4811      	ldr	r0, [pc, #68]	; (800308c <I2C2_EV_IRQHandler+0x1c4>)
 8003046:	8a1c      	ldrh	r4, [r3, #16]
 8003048:	b2c9      	uxtb	r1, r1
 800304a:	5444      	strb	r4, [r0, r1]
 800304c:	3101      	adds	r1, #1
 800304e:	b2c9      	uxtb	r1, r1
 8003050:	70d1      	strb	r1, [r2, #3]
 8003052:	4a12      	ldr	r2, [pc, #72]	; (800309c <I2C2_EV_IRQHandler+0x1d4>)
 8003054:	6811      	ldr	r1, [r2, #0]
 8003056:	3901      	subs	r1, #1
 8003058:	6011      	str	r1, [r2, #0]
 800305a:	6812      	ldr	r2, [r2, #0]
 800305c:	2a01      	cmp	r2, #1
 800305e:	d10a      	bne.n	8003076 <I2C2_EV_IRQHandler+0x1ae>
 8003060:	881a      	ldrh	r2, [r3, #0]
 8003062:	f422 6280 	bic.w	r2, r2, #1024	; 0x400
 8003066:	0412      	lsls	r2, r2, #16
 8003068:	0c12      	lsrs	r2, r2, #16
 800306a:	801a      	strh	r2, [r3, #0]
 800306c:	881a      	ldrh	r2, [r3, #0]
 800306e:	b292      	uxth	r2, r2
 8003070:	f442 7200 	orr.w	r2, r2, #512	; 0x200
 8003074:	801a      	strh	r2, [r3, #0]
 8003076:	2300      	movs	r3, #0
 8003078:	9300      	str	r3, [sp, #0]
 800307a:	9301      	str	r3, [sp, #4]
 800307c:	bd1c      	pop	{r2, r3, r4, pc}
 800307e:	bf00      	nop
 8003080:	40005800 	.word	0x40005800
 8003084:	20000234 	.word	0x20000234
 8003088:	200000ff 	.word	0x200000ff
 800308c:	20000271 	.word	0x20000271
 8003090:	20000264 	.word	0x20000264
 8003094:	20000228 	.word	0x20000228
 8003098:	20000000 	.word	0x20000000
 800309c:	20000268 	.word	0x20000268

080030a0 <I2C2_ER_IRQHandler>:
 80030a0:	b082      	sub	sp, #8
 80030a2:	2100      	movs	r1, #0
 80030a4:	4a1a      	ldr	r2, [pc, #104]	; (8003110 <I2C2_ER_IRQHandler+0x70>)
 80030a6:	9101      	str	r1, [sp, #4]
 80030a8:	8a93      	ldrh	r3, [r2, #20]
 80030aa:	b29b      	uxth	r3, r3
 80030ac:	9301      	str	r3, [sp, #4]
 80030ae:	9b01      	ldr	r3, [sp, #4]
 80030b0:	0558      	lsls	r0, r3, #21
 80030b2:	d506      	bpl.n	80030c2 <I2C2_ER_IRQHandler+0x22>
 80030b4:	8a93      	ldrh	r3, [r2, #20]
 80030b6:	f423 6380 	bic.w	r3, r3, #1024	; 0x400
 80030ba:	041b      	lsls	r3, r3, #16
 80030bc:	0c1b      	lsrs	r3, r3, #16
 80030be:	8293      	strh	r3, [r2, #20]
 80030c0:	9101      	str	r1, [sp, #4]
 80030c2:	9b01      	ldr	r3, [sp, #4]
 80030c4:	0599      	lsls	r1, r3, #22
 80030c6:	d508      	bpl.n	80030da <I2C2_ER_IRQHandler+0x3a>
 80030c8:	4a11      	ldr	r2, [pc, #68]	; (8003110 <I2C2_ER_IRQHandler+0x70>)
 80030ca:	8a93      	ldrh	r3, [r2, #20]
 80030cc:	f423 6380 	bic.w	r3, r3, #1024	; 0x400
 80030d0:	041b      	lsls	r3, r3, #16
 80030d2:	0c1b      	lsrs	r3, r3, #16
 80030d4:	8293      	strh	r3, [r2, #20]
 80030d6:	2300      	movs	r3, #0
 80030d8:	9301      	str	r3, [sp, #4]
 80030da:	9b01      	ldr	r3, [sp, #4]
 80030dc:	05da      	lsls	r2, r3, #23
 80030de:	d508      	bpl.n	80030f2 <I2C2_ER_IRQHandler+0x52>
 80030e0:	4a0b      	ldr	r2, [pc, #44]	; (8003110 <I2C2_ER_IRQHandler+0x70>)
 80030e2:	8a93      	ldrh	r3, [r2, #20]
 80030e4:	f423 7380 	bic.w	r3, r3, #256	; 0x100
 80030e8:	041b      	lsls	r3, r3, #16
 80030ea:	0c1b      	lsrs	r3, r3, #16
 80030ec:	8293      	strh	r3, [r2, #20]
 80030ee:	2300      	movs	r3, #0
 80030f0:	9301      	str	r3, [sp, #4]
 80030f2:	9b01      	ldr	r3, [sp, #4]
 80030f4:	051b      	lsls	r3, r3, #20
 80030f6:	d508      	bpl.n	800310a <I2C2_ER_IRQHandler+0x6a>
 80030f8:	4a05      	ldr	r2, [pc, #20]	; (8003110 <I2C2_ER_IRQHandler+0x70>)
 80030fa:	8a93      	ldrh	r3, [r2, #20]
 80030fc:	f423 6300 	bic.w	r3, r3, #2048	; 0x800
 8003100:	041b      	lsls	r3, r3, #16
 8003102:	0c1b      	lsrs	r3, r3, #16
 8003104:	8293      	strh	r3, [r2, #20]
 8003106:	2300      	movs	r3, #0
 8003108:	9301      	str	r3, [sp, #4]
 800310a:	b002      	add	sp, #8
 800310c:	4770      	bx	lr
 800310e:	bf00      	nop
 8003110:	40005800 	.word	0x40005800

08003114 <I2C1_ER_IRQHandler>:
 8003114:	b082      	sub	sp, #8
 8003116:	2100      	movs	r1, #0
 8003118:	4a1a      	ldr	r2, [pc, #104]	; (8003184 <I2C1_ER_IRQHandler+0x70>)
 800311a:	9101      	str	r1, [sp, #4]
 800311c:	8a93      	ldrh	r3, [r2, #20]
 800311e:	b29b      	uxth	r3, r3
 8003120:	9301      	str	r3, [sp, #4]
 8003122:	9b01      	ldr	r3, [sp, #4]
 8003124:	0558      	lsls	r0, r3, #21
 8003126:	d506      	bpl.n	8003136 <I2C1_ER_IRQHandler+0x22>
 8003128:	8a93      	ldrh	r3, [r2, #20]
 800312a:	f423 6380 	bic.w	r3, r3, #1024	; 0x400
 800312e:	041b      	lsls	r3, r3, #16
 8003130:	0c1b      	lsrs	r3, r3, #16
 8003132:	8293      	strh	r3, [r2, #20]
 8003134:	9101      	str	r1, [sp, #4]
 8003136:	9b01      	ldr	r3, [sp, #4]
 8003138:	0599      	lsls	r1, r3, #22
 800313a:	d508      	bpl.n	800314e <I2C1_ER_IRQHandler+0x3a>
 800313c:	4a11      	ldr	r2, [pc, #68]	; (8003184 <I2C1_ER_IRQHandler+0x70>)
 800313e:	8a93      	ldrh	r3, [r2, #20]
 8003140:	f423 6380 	bic.w	r3, r3, #1024	; 0x400
 8003144:	041b      	lsls	r3, r3, #16
 8003146:	0c1b      	lsrs	r3, r3, #16
 8003148:	8293      	strh	r3, [r2, #20]
 800314a:	2300      	movs	r3, #0
 800314c:	9301      	str	r3, [sp, #4]
 800314e:	9b01      	ldr	r3, [sp, #4]
 8003150:	05da      	lsls	r2, r3, #23
 8003152:	d508      	bpl.n	8003166 <I2C1_ER_IRQHandler+0x52>
 8003154:	4a0b      	ldr	r2, [pc, #44]	; (8003184 <I2C1_ER_IRQHandler+0x70>)
 8003156:	8a93      	ldrh	r3, [r2, #20]
 8003158:	f423 7380 	bic.w	r3, r3, #256	; 0x100
 800315c:	041b      	lsls	r3, r3, #16
 800315e:	0c1b      	lsrs	r3, r3, #16
 8003160:	8293      	strh	r3, [r2, #20]
 8003162:	2300      	movs	r3, #0
 8003164:	9301      	str	r3, [sp, #4]
 8003166:	9b01      	ldr	r3, [sp, #4]
 8003168:	051b      	lsls	r3, r3, #20
 800316a:	d508      	bpl.n	800317e <I2C1_ER_IRQHandler+0x6a>
 800316c:	4a05      	ldr	r2, [pc, #20]	; (8003184 <I2C1_ER_IRQHandler+0x70>)
 800316e:	8a93      	ldrh	r3, [r2, #20]
 8003170:	f423 6300 	bic.w	r3, r3, #2048	; 0x800
 8003174:	041b      	lsls	r3, r3, #16
 8003176:	0c1b      	lsrs	r3, r3, #16
 8003178:	8293      	strh	r3, [r2, #20]
 800317a:	2300      	movs	r3, #0
 800317c:	9301      	str	r3, [sp, #4]
 800317e:	b002      	add	sp, #8
 8003180:	4770      	bx	lr
 8003182:	bf00      	nop
 8003184:	40005400 	.word	0x40005400

08003188 <IWDG_WriteAccessCmd>:
 8003188:	4b01      	ldr	r3, [pc, #4]	; (8003190 <IWDG_WriteAccessCmd+0x8>)
 800318a:	6018      	str	r0, [r3, #0]
 800318c:	4770      	bx	lr
 800318e:	bf00      	nop
 8003190:	40003000 	.word	0x40003000

08003194 <IWDG_SetPrescaler>:
 8003194:	4b01      	ldr	r3, [pc, #4]	; (800319c <IWDG_SetPrescaler+0x8>)
 8003196:	6058      	str	r0, [r3, #4]
 8003198:	4770      	bx	lr
 800319a:	bf00      	nop
 800319c:	40003000 	.word	0x40003000

080031a0 <IWDG_SetReload>:
 80031a0:	4b01      	ldr	r3, [pc, #4]	; (80031a8 <IWDG_SetReload+0x8>)
 80031a2:	6098      	str	r0, [r3, #8]
 80031a4:	4770      	bx	lr
 80031a6:	bf00      	nop
 80031a8:	40003000 	.word	0x40003000

080031ac <IWDG_ReloadCounter>:
 80031ac:	4b02      	ldr	r3, [pc, #8]	; (80031b8 <IWDG_ReloadCounter+0xc>)
 80031ae:	f64a 22aa 	movw	r2, #43690	; 0xaaaa
 80031b2:	601a      	str	r2, [r3, #0]
 80031b4:	4770      	bx	lr
 80031b6:	bf00      	nop
 80031b8:	40003000 	.word	0x40003000

080031bc <IWDG_Enable>:
 80031bc:	4b02      	ldr	r3, [pc, #8]	; (80031c8 <IWDG_Enable+0xc>)
 80031be:	f64c 42cc 	movw	r2, #52428	; 0xcccc
 80031c2:	601a      	str	r2, [r3, #0]
 80031c4:	4770      	bx	lr
 80031c6:	bf00      	nop
 80031c8:	40003000 	.word	0x40003000

080031cc <IWDG_GetFlagStatus>:
 80031cc:	4b03      	ldr	r3, [pc, #12]	; (80031dc <IWDG_GetFlagStatus+0x10>)
 80031ce:	68db      	ldr	r3, [r3, #12]
 80031d0:	4218      	tst	r0, r3
 80031d2:	bf0c      	ite	eq
 80031d4:	2000      	moveq	r0, #0
 80031d6:	2001      	movne	r0, #1
 80031d8:	4770      	bx	lr
 80031da:	bf00      	nop
 80031dc:	40003000 	.word	0x40003000

080031e0 <PWR_DeInit>:
 80031e0:	b508      	push	{r3, lr}
 80031e2:	f04f 5080 	mov.w	r0, #268435456	; 0x10000000
 80031e6:	2101      	movs	r1, #1
 80031e8:	f000 f9b2 	bl	8003550 <RCC_APB1PeriphResetCmd>
 80031ec:	f04f 5080 	mov.w	r0, #268435456	; 0x10000000
 80031f0:	2100      	movs	r1, #0
 80031f2:	e8bd 4008 	ldmia.w	sp!, {r3, lr}
 80031f6:	f000 b9ab 	b.w	8003550 <RCC_APB1PeriphResetCmd>

080031fa <PWR_BackupAccessCmd>:
 80031fa:	4b01      	ldr	r3, [pc, #4]	; (8003200 <PWR_BackupAccessCmd+0x6>)
 80031fc:	6018      	str	r0, [r3, #0]
 80031fe:	4770      	bx	lr
 8003200:	420e0020 	.word	0x420e0020

08003204 <PWR_PVDCmd>:
 8003204:	4b01      	ldr	r3, [pc, #4]	; (800320c <PWR_PVDCmd+0x8>)
 8003206:	6018      	str	r0, [r3, #0]
 8003208:	4770      	bx	lr
 800320a:	bf00      	nop
 800320c:	420e0010 	.word	0x420e0010

08003210 <PWR_PVDLevelConfig>:
 8003210:	4b03      	ldr	r3, [pc, #12]	; (8003220 <PWR_PVDLevelConfig+0x10>)
 8003212:	681a      	ldr	r2, [r3, #0]
 8003214:	f022 02e0 	bic.w	r2, r2, #224	; 0xe0
 8003218:	4310      	orrs	r0, r2
 800321a:	6018      	str	r0, [r3, #0]
 800321c:	4770      	bx	lr
 800321e:	bf00      	nop
 8003220:	40007000 	.word	0x40007000

08003224 <PWR_WakeUpPinCmd>:
 8003224:	4b01      	ldr	r3, [pc, #4]	; (800322c <PWR_WakeUpPinCmd+0x8>)
 8003226:	6018      	str	r0, [r3, #0]
 8003228:	4770      	bx	lr
 800322a:	bf00      	nop
 800322c:	420e00a0 	.word	0x420e00a0

08003230 <PWR_EnterSTOPMode>:
 8003230:	4b0a      	ldr	r3, [pc, #40]	; (800325c <PWR_EnterSTOPMode+0x2c>)
 8003232:	2901      	cmp	r1, #1
 8003234:	681a      	ldr	r2, [r3, #0]
 8003236:	f022 0203 	bic.w	r2, r2, #3
 800323a:	ea40 0002 	orr.w	r0, r0, r2
 800323e:	6018      	str	r0, [r3, #0]
 8003240:	4b07      	ldr	r3, [pc, #28]	; (8003260 <PWR_EnterSTOPMode+0x30>)
 8003242:	681a      	ldr	r2, [r3, #0]
 8003244:	f042 0204 	orr.w	r2, r2, #4
 8003248:	601a      	str	r2, [r3, #0]
 800324a:	d101      	bne.n	8003250 <PWR_EnterSTOPMode+0x20>
 800324c:	bf30      	wfi
 800324e:	e000      	b.n	8003252 <PWR_EnterSTOPMode+0x22>
 8003250:	bf20      	wfe
 8003252:	681a      	ldr	r2, [r3, #0]
 8003254:	f022 0204 	bic.w	r2, r2, #4
 8003258:	601a      	str	r2, [r3, #0]
 800325a:	4770      	bx	lr
 800325c:	40007000 	.word	0x40007000
 8003260:	e000ed10 	.word	0xe000ed10

08003264 <PWR_EnterSTANDBYMode>:
 8003264:	4b07      	ldr	r3, [pc, #28]	; (8003284 <PWR_EnterSTANDBYMode+0x20>)
 8003266:	681a      	ldr	r2, [r3, #0]
 8003268:	f042 0204 	orr.w	r2, r2, #4
 800326c:	601a      	str	r2, [r3, #0]
 800326e:	681a      	ldr	r2, [r3, #0]
 8003270:	f042 0202 	orr.w	r2, r2, #2
 8003274:	601a      	str	r2, [r3, #0]
 8003276:	4b04      	ldr	r3, [pc, #16]	; (8003288 <PWR_EnterSTANDBYMode+0x24>)
 8003278:	681a      	ldr	r2, [r3, #0]
 800327a:	f042 0204 	orr.w	r2, r2, #4
 800327e:	601a      	str	r2, [r3, #0]
 8003280:	bf30      	wfi
 8003282:	4770      	bx	lr
 8003284:	40007000 	.word	0x40007000
 8003288:	e000ed10 	.word	0xe000ed10

0800328c <PWR_GetFlagStatus>:
 800328c:	4b03      	ldr	r3, [pc, #12]	; (800329c <PWR_GetFlagStatus+0x10>)
 800328e:	685b      	ldr	r3, [r3, #4]
 8003290:	4218      	tst	r0, r3
 8003292:	bf0c      	ite	eq
 8003294:	2000      	moveq	r0, #0
 8003296:	2001      	movne	r0, #1
 8003298:	4770      	bx	lr
 800329a:	bf00      	nop
 800329c:	40007000 	.word	0x40007000

080032a0 <PWR_ClearFlag>:
 80032a0:	4b02      	ldr	r3, [pc, #8]	; (80032ac <PWR_ClearFlag+0xc>)
 80032a2:	681a      	ldr	r2, [r3, #0]
 80032a4:	ea42 0080 	orr.w	r0, r2, r0, lsl #2
 80032a8:	6018      	str	r0, [r3, #0]
 80032aa:	4770      	bx	lr
 80032ac:	40007000 	.word	0x40007000

080032b0 <RCC_DeInit>:
 80032b0:	4b0e      	ldr	r3, [pc, #56]	; (80032ec <RCC_DeInit+0x3c>)
 80032b2:	681a      	ldr	r2, [r3, #0]
 80032b4:	f042 0201 	orr.w	r2, r2, #1
 80032b8:	601a      	str	r2, [r3, #0]
 80032ba:	6859      	ldr	r1, [r3, #4]
 80032bc:	4a0c      	ldr	r2, [pc, #48]	; (80032f0 <RCC_DeInit+0x40>)
 80032be:	400a      	ands	r2, r1
 80032c0:	605a      	str	r2, [r3, #4]
 80032c2:	681a      	ldr	r2, [r3, #0]
 80032c4:	f022 7284 	bic.w	r2, r2, #17301504	; 0x1080000
 80032c8:	f422 3280 	bic.w	r2, r2, #65536	; 0x10000
 80032cc:	601a      	str	r2, [r3, #0]
 80032ce:	681a      	ldr	r2, [r3, #0]
 80032d0:	f422 2280 	bic.w	r2, r2, #262144	; 0x40000
 80032d4:	601a      	str	r2, [r3, #0]
 80032d6:	685a      	ldr	r2, [r3, #4]
 80032d8:	f422 02fe 	bic.w	r2, r2, #8323072	; 0x7f0000
 80032dc:	605a      	str	r2, [r3, #4]
 80032de:	f44f 021f 	mov.w	r2, #10420224	; 0x9f0000
 80032e2:	609a      	str	r2, [r3, #8]
 80032e4:	2200      	movs	r2, #0
 80032e6:	62da      	str	r2, [r3, #44]	; 0x2c
 80032e8:	4770      	bx	lr
 80032ea:	bf00      	nop
 80032ec:	40021000 	.word	0x40021000
 80032f0:	f8ff0000 	.word	0xf8ff0000

080032f4 <RCC_HSEConfig>:
 80032f4:	4b0c      	ldr	r3, [pc, #48]	; (8003328 <RCC_HSEConfig+0x34>)
 80032f6:	f5b0 3f80 	cmp.w	r0, #65536	; 0x10000
 80032fa:	681a      	ldr	r2, [r3, #0]
 80032fc:	f422 3280 	bic.w	r2, r2, #65536	; 0x10000
 8003300:	601a      	str	r2, [r3, #0]
 8003302:	681a      	ldr	r2, [r3, #0]
 8003304:	f422 2280 	bic.w	r2, r2, #262144	; 0x40000
 8003308:	601a      	str	r2, [r3, #0]
 800330a:	d003      	beq.n	8003314 <RCC_HSEConfig+0x20>
 800330c:	f5b0 2f80 	cmp.w	r0, #262144	; 0x40000
 8003310:	d108      	bne.n	8003324 <RCC_HSEConfig+0x30>
 8003312:	e003      	b.n	800331c <RCC_HSEConfig+0x28>
 8003314:	681a      	ldr	r2, [r3, #0]
 8003316:	f442 3280 	orr.w	r2, r2, #65536	; 0x10000
 800331a:	e002      	b.n	8003322 <RCC_HSEConfig+0x2e>
 800331c:	681a      	ldr	r2, [r3, #0]
 800331e:	f442 22a0 	orr.w	r2, r2, #327680	; 0x50000
 8003322:	601a      	str	r2, [r3, #0]
 8003324:	4770      	bx	lr
 8003326:	bf00      	nop
 8003328:	40021000 	.word	0x40021000

0800332c <RCC_AdjustHSICalibrationValue>:
 800332c:	4b03      	ldr	r3, [pc, #12]	; (800333c <RCC_AdjustHSICalibrationValue+0x10>)
 800332e:	681a      	ldr	r2, [r3, #0]
 8003330:	f022 02f8 	bic.w	r2, r2, #248	; 0xf8
 8003334:	ea42 00c0 	orr.w	r0, r2, r0, lsl #3
 8003338:	6018      	str	r0, [r3, #0]
 800333a:	4770      	bx	lr
 800333c:	40021000 	.word	0x40021000

08003340 <RCC_HSICmd>:
 8003340:	4b01      	ldr	r3, [pc, #4]	; (8003348 <RCC_HSICmd+0x8>)
 8003342:	6018      	str	r0, [r3, #0]
 8003344:	4770      	bx	lr
 8003346:	bf00      	nop
 8003348:	42420000 	.word	0x42420000

0800334c <RCC_PLLConfig>:
 800334c:	4b03      	ldr	r3, [pc, #12]	; (800335c <RCC_PLLConfig+0x10>)
 800334e:	685a      	ldr	r2, [r3, #4]
 8003350:	f422 1274 	bic.w	r2, r2, #3997696	; 0x3d0000
 8003354:	4310      	orrs	r0, r2
 8003356:	4301      	orrs	r1, r0
 8003358:	6059      	str	r1, [r3, #4]
 800335a:	4770      	bx	lr
 800335c:	40021000 	.word	0x40021000

08003360 <RCC_PLLCmd>:
 8003360:	4b01      	ldr	r3, [pc, #4]	; (8003368 <RCC_PLLCmd+0x8>)
 8003362:	6018      	str	r0, [r3, #0]
 8003364:	4770      	bx	lr
 8003366:	bf00      	nop
 8003368:	42420060 	.word	0x42420060

0800336c <RCC_PREDIV1Config>:
 800336c:	4b04      	ldr	r3, [pc, #16]	; (8003380 <RCC_PREDIV1Config+0x14>)
 800336e:	6ada      	ldr	r2, [r3, #44]	; 0x2c
 8003370:	f422 3280 	bic.w	r2, r2, #65536	; 0x10000
 8003374:	f022 020f 	bic.w	r2, r2, #15
 8003378:	4310      	orrs	r0, r2
 800337a:	4301      	orrs	r1, r0
 800337c:	62d9      	str	r1, [r3, #44]	; 0x2c
 800337e:	4770      	bx	lr
 8003380:	40021000 	.word	0x40021000

08003384 <RCC_SYSCLKConfig>:
 8003384:	4b03      	ldr	r3, [pc, #12]	; (8003394 <RCC_SYSCLKConfig+0x10>)
 8003386:	685a      	ldr	r2, [r3, #4]
 8003388:	f022 0203 	bic.w	r2, r2, #3
 800338c:	4310      	orrs	r0, r2
 800338e:	6058      	str	r0, [r3, #4]
 8003390:	4770      	bx	lr
 8003392:	bf00      	nop
 8003394:	40021000 	.word	0x40021000

08003398 <RCC_GetSYSCLKSource>:
 8003398:	4b02      	ldr	r3, [pc, #8]	; (80033a4 <RCC_GetSYSCLKSource+0xc>)
 800339a:	6858      	ldr	r0, [r3, #4]
 800339c:	f000 000c 	and.w	r0, r0, #12
 80033a0:	4770      	bx	lr
 80033a2:	bf00      	nop
 80033a4:	40021000 	.word	0x40021000

080033a8 <RCC_HCLKConfig>:
 80033a8:	4b03      	ldr	r3, [pc, #12]	; (80033b8 <RCC_HCLKConfig+0x10>)
 80033aa:	685a      	ldr	r2, [r3, #4]
 80033ac:	f022 02f0 	bic.w	r2, r2, #240	; 0xf0
 80033b0:	4310      	orrs	r0, r2
 80033b2:	6058      	str	r0, [r3, #4]
 80033b4:	4770      	bx	lr
 80033b6:	bf00      	nop
 80033b8:	40021000 	.word	0x40021000

080033bc <RCC_PCLK1Config>:
 80033bc:	4b03      	ldr	r3, [pc, #12]	; (80033cc <RCC_PCLK1Config+0x10>)
 80033be:	685a      	ldr	r2, [r3, #4]
 80033c0:	f422 62e0 	bic.w	r2, r2, #1792	; 0x700
 80033c4:	4310      	orrs	r0, r2
 80033c6:	6058      	str	r0, [r3, #4]
 80033c8:	4770      	bx	lr
 80033ca:	bf00      	nop
 80033cc:	40021000 	.word	0x40021000

080033d0 <RCC_PCLK2Config>:
 80033d0:	4b03      	ldr	r3, [pc, #12]	; (80033e0 <RCC_PCLK2Config+0x10>)
 80033d2:	685a      	ldr	r2, [r3, #4]
 80033d4:	f422 5260 	bic.w	r2, r2, #14336	; 0x3800
 80033d8:	ea42 00c0 	orr.w	r0, r2, r0, lsl #3
 80033dc:	6058      	str	r0, [r3, #4]
 80033de:	4770      	bx	lr
 80033e0:	40021000 	.word	0x40021000

080033e4 <RCC_ITConfig>:
 80033e4:	4b04      	ldr	r3, [pc, #16]	; (80033f8 <RCC_ITConfig+0x14>)
 80033e6:	781a      	ldrb	r2, [r3, #0]
 80033e8:	b109      	cbz	r1, 80033ee <RCC_ITConfig+0xa>
 80033ea:	4310      	orrs	r0, r2
 80033ec:	e001      	b.n	80033f2 <RCC_ITConfig+0xe>
 80033ee:	ea22 0000 	bic.w	r0, r2, r0
 80033f2:	7018      	strb	r0, [r3, #0]
 80033f4:	4770      	bx	lr
 80033f6:	bf00      	nop
 80033f8:	40021009 	.word	0x40021009

080033fc <RCC_USBCLKConfig>:
 80033fc:	4b01      	ldr	r3, [pc, #4]	; (8003404 <RCC_USBCLKConfig+0x8>)
 80033fe:	6018      	str	r0, [r3, #0]
 8003400:	4770      	bx	lr
 8003402:	bf00      	nop
 8003404:	424200d8 	.word	0x424200d8

08003408 <RCC_ADCCLKConfig>:
 8003408:	4b03      	ldr	r3, [pc, #12]	; (8003418 <RCC_ADCCLKConfig+0x10>)
 800340a:	685a      	ldr	r2, [r3, #4]
 800340c:	f422 4240 	bic.w	r2, r2, #49152	; 0xc000
 8003410:	4310      	orrs	r0, r2
 8003412:	6058      	str	r0, [r3, #4]
 8003414:	4770      	bx	lr
 8003416:	bf00      	nop
 8003418:	40021000 	.word	0x40021000

0800341c <RCC_LSEConfig>:
 800341c:	4b06      	ldr	r3, [pc, #24]	; (8003438 <RCC_LSEConfig+0x1c>)
 800341e:	2200      	movs	r2, #0
 8003420:	2801      	cmp	r0, #1
 8003422:	701a      	strb	r2, [r3, #0]
 8003424:	701a      	strb	r2, [r3, #0]
 8003426:	d002      	beq.n	800342e <RCC_LSEConfig+0x12>
 8003428:	2804      	cmp	r0, #4
 800342a:	d104      	bne.n	8003436 <RCC_LSEConfig+0x1a>
 800342c:	e001      	b.n	8003432 <RCC_LSEConfig+0x16>
 800342e:	7018      	strb	r0, [r3, #0]
 8003430:	4770      	bx	lr
 8003432:	2205      	movs	r2, #5
 8003434:	701a      	strb	r2, [r3, #0]
 8003436:	4770      	bx	lr
 8003438:	40021020 	.word	0x40021020

0800343c <RCC_LSICmd>:
 800343c:	4b01      	ldr	r3, [pc, #4]	; (8003444 <RCC_LSICmd+0x8>)
 800343e:	6018      	str	r0, [r3, #0]
 8003440:	4770      	bx	lr
 8003442:	bf00      	nop
 8003444:	42420480 	.word	0x42420480

08003448 <RCC_RTCCLKConfig>:
 8003448:	4b02      	ldr	r3, [pc, #8]	; (8003454 <RCC_RTCCLKConfig+0xc>)
 800344a:	6a1a      	ldr	r2, [r3, #32]
 800344c:	4310      	orrs	r0, r2
 800344e:	6218      	str	r0, [r3, #32]
 8003450:	4770      	bx	lr
 8003452:	bf00      	nop
 8003454:	40021000 	.word	0x40021000

08003458 <RCC_RTCCLKCmd>:
 8003458:	4b01      	ldr	r3, [pc, #4]	; (8003460 <RCC_RTCCLKCmd+0x8>)
 800345a:	6018      	str	r0, [r3, #0]
 800345c:	4770      	bx	lr
 800345e:	bf00      	nop
 8003460:	4242043c 	.word	0x4242043c

08003464 <RCC_GetClocksFreq>:
 8003464:	4b1e      	ldr	r3, [pc, #120]	; (80034e0 <RCC_GetClocksFreq+0x7c>)
 8003466:	b510      	push	{r4, lr}
 8003468:	685a      	ldr	r2, [r3, #4]
 800346a:	f002 020c 	and.w	r2, r2, #12
 800346e:	2a04      	cmp	r2, #4
 8003470:	d001      	beq.n	8003476 <RCC_GetClocksFreq+0x12>
 8003472:	2a08      	cmp	r2, #8
 8003474:	d002      	beq.n	800347c <RCC_GetClocksFreq+0x18>
 8003476:	4b1b      	ldr	r3, [pc, #108]	; (80034e4 <RCC_GetClocksFreq+0x80>)
 8003478:	6003      	str	r3, [r0, #0]
 800347a:	e012      	b.n	80034a2 <RCC_GetClocksFreq+0x3e>
 800347c:	685a      	ldr	r2, [r3, #4]
 800347e:	6859      	ldr	r1, [r3, #4]
 8003480:	f3c2 4283 	ubfx	r2, r2, #18, #4
 8003484:	03c9      	lsls	r1, r1, #15
 8003486:	f102 0202 	add.w	r2, r2, #2
 800348a:	d401      	bmi.n	8003490 <RCC_GetClocksFreq+0x2c>
 800348c:	4b16      	ldr	r3, [pc, #88]	; (80034e8 <RCC_GetClocksFreq+0x84>)
 800348e:	e006      	b.n	800349e <RCC_GetClocksFreq+0x3a>
 8003490:	6adb      	ldr	r3, [r3, #44]	; 0x2c
 8003492:	4914      	ldr	r1, [pc, #80]	; (80034e4 <RCC_GetClocksFreq+0x80>)
 8003494:	f003 030f 	and.w	r3, r3, #15
 8003498:	3301      	adds	r3, #1
 800349a:	fbb1 f3f3 	udiv	r3, r1, r3
 800349e:	435a      	muls	r2, r3
 80034a0:	6002      	str	r2, [r0, #0]
 80034a2:	4a0f      	ldr	r2, [pc, #60]	; (80034e0 <RCC_GetClocksFreq+0x7c>)
 80034a4:	4b11      	ldr	r3, [pc, #68]	; (80034ec <RCC_GetClocksFreq+0x88>)
 80034a6:	6851      	ldr	r1, [r2, #4]
 80034a8:	f3c1 1103 	ubfx	r1, r1, #4, #4
 80034ac:	5c5c      	ldrb	r4, [r3, r1]
 80034ae:	6801      	ldr	r1, [r0, #0]
 80034b0:	40e1      	lsrs	r1, r4
 80034b2:	6041      	str	r1, [r0, #4]
 80034b4:	6854      	ldr	r4, [r2, #4]
 80034b6:	f3c4 2402 	ubfx	r4, r4, #8, #3
 80034ba:	5d1c      	ldrb	r4, [r3, r4]
 80034bc:	fa21 f404 	lsr.w	r4, r1, r4
 80034c0:	6084      	str	r4, [r0, #8]
 80034c2:	6854      	ldr	r4, [r2, #4]
 80034c4:	f3c4 24c2 	ubfx	r4, r4, #11, #3
 80034c8:	5d1c      	ldrb	r4, [r3, r4]
 80034ca:	40e1      	lsrs	r1, r4
 80034cc:	60c1      	str	r1, [r0, #12]
 80034ce:	6852      	ldr	r2, [r2, #4]
 80034d0:	f3c2 3281 	ubfx	r2, r2, #14, #2
 80034d4:	189b      	adds	r3, r3, r2
 80034d6:	7c1b      	ldrb	r3, [r3, #16]
 80034d8:	fbb1 f1f3 	udiv	r1, r1, r3
 80034dc:	6101      	str	r1, [r0, #16]
 80034de:	bd10      	pop	{r4, pc}
 80034e0:	40021000 	.word	0x40021000
 80034e4:	007a1200 	.word	0x007a1200
 80034e8:	003d0900 	.word	0x003d0900
 80034ec:	200001fe 	.word	0x200001fe

080034f0 <RCC_AHBPeriphClockCmd>:
 80034f0:	4b04      	ldr	r3, [pc, #16]	; (8003504 <RCC_AHBPeriphClockCmd+0x14>)
 80034f2:	695a      	ldr	r2, [r3, #20]
 80034f4:	b109      	cbz	r1, 80034fa <RCC_AHBPeriphClockCmd+0xa>
 80034f6:	4310      	orrs	r0, r2
 80034f8:	e001      	b.n	80034fe <RCC_AHBPeriphClockCmd+0xe>
 80034fa:	ea22 0000 	bic.w	r0, r2, r0
 80034fe:	6158      	str	r0, [r3, #20]
 8003500:	4770      	bx	lr
 8003502:	bf00      	nop
 8003504:	40021000 	.word	0x40021000

08003508 <RCC_APB2PeriphClockCmd>:
 8003508:	4b04      	ldr	r3, [pc, #16]	; (800351c <RCC_APB2PeriphClockCmd+0x14>)
 800350a:	699a      	ldr	r2, [r3, #24]
 800350c:	b109      	cbz	r1, 8003512 <RCC_APB2PeriphClockCmd+0xa>
 800350e:	4310      	orrs	r0, r2
 8003510:	e001      	b.n	8003516 <RCC_APB2PeriphClockCmd+0xe>
 8003512:	ea22 0000 	bic.w	r0, r2, r0
 8003516:	6198      	str	r0, [r3, #24]
 8003518:	4770      	bx	lr
 800351a:	bf00      	nop
 800351c:	40021000 	.word	0x40021000

08003520 <RCC_APB1PeriphClockCmd>:
 8003520:	4b04      	ldr	r3, [pc, #16]	; (8003534 <RCC_APB1PeriphClockCmd+0x14>)
 8003522:	69da      	ldr	r2, [r3, #28]
 8003524:	b109      	cbz	r1, 800352a <RCC_APB1PeriphClockCmd+0xa>
 8003526:	4310      	orrs	r0, r2
 8003528:	e001      	b.n	800352e <RCC_APB1PeriphClockCmd+0xe>
 800352a:	ea22 0000 	bic.w	r0, r2, r0
 800352e:	61d8      	str	r0, [r3, #28]
 8003530:	4770      	bx	lr
 8003532:	bf00      	nop
 8003534:	40021000 	.word	0x40021000

08003538 <RCC_APB2PeriphResetCmd>:
 8003538:	4b04      	ldr	r3, [pc, #16]	; (800354c <RCC_APB2PeriphResetCmd+0x14>)
 800353a:	68da      	ldr	r2, [r3, #12]
 800353c:	b109      	cbz	r1, 8003542 <RCC_APB2PeriphResetCmd+0xa>
 800353e:	4310      	orrs	r0, r2
 8003540:	e001      	b.n	8003546 <RCC_APB2PeriphResetCmd+0xe>
 8003542:	ea22 0000 	bic.w	r0, r2, r0
 8003546:	60d8      	str	r0, [r3, #12]
 8003548:	4770      	bx	lr
 800354a:	bf00      	nop
 800354c:	40021000 	.word	0x40021000

08003550 <RCC_APB1PeriphResetCmd>:
 8003550:	4b04      	ldr	r3, [pc, #16]	; (8003564 <RCC_APB1PeriphResetCmd+0x14>)
 8003552:	691a      	ldr	r2, [r3, #16]
 8003554:	b109      	cbz	r1, 800355a <RCC_APB1PeriphResetCmd+0xa>
 8003556:	4310      	orrs	r0, r2
 8003558:	e001      	b.n	800355e <RCC_APB1PeriphResetCmd+0xe>
 800355a:	ea22 0000 	bic.w	r0, r2, r0
 800355e:	6118      	str	r0, [r3, #16]
 8003560:	4770      	bx	lr
 8003562:	bf00      	nop
 8003564:	40021000 	.word	0x40021000

08003568 <RCC_BackupResetCmd>:
 8003568:	4b01      	ldr	r3, [pc, #4]	; (8003570 <RCC_BackupResetCmd+0x8>)
 800356a:	6018      	str	r0, [r3, #0]
 800356c:	4770      	bx	lr
 800356e:	bf00      	nop
 8003570:	42420440 	.word	0x42420440

08003574 <RCC_ClockSecuritySystemCmd>:
 8003574:	4b01      	ldr	r3, [pc, #4]	; (800357c <RCC_ClockSecuritySystemCmd+0x8>)
 8003576:	6018      	str	r0, [r3, #0]
 8003578:	4770      	bx	lr
 800357a:	bf00      	nop
 800357c:	4242004c 	.word	0x4242004c

08003580 <RCC_MCOConfig>:
 8003580:	4b01      	ldr	r3, [pc, #4]	; (8003588 <RCC_MCOConfig+0x8>)
 8003582:	7018      	strb	r0, [r3, #0]
 8003584:	4770      	bx	lr
 8003586:	bf00      	nop
 8003588:	40021007 	.word	0x40021007

0800358c <RCC_GetFlagStatus>:
 800358c:	0943      	lsrs	r3, r0, #5
 800358e:	2b01      	cmp	r3, #1
 8003590:	4a07      	ldr	r2, [pc, #28]	; (80035b0 <RCC_GetFlagStatus+0x24>)
 8003592:	d101      	bne.n	8003598 <RCC_GetFlagStatus+0xc>
 8003594:	6813      	ldr	r3, [r2, #0]
 8003596:	e003      	b.n	80035a0 <RCC_GetFlagStatus+0x14>
 8003598:	2b02      	cmp	r3, #2
 800359a:	bf0c      	ite	eq
 800359c:	6a13      	ldreq	r3, [r2, #32]
 800359e:	6a53      	ldrne	r3, [r2, #36]	; 0x24
 80035a0:	f000 001f 	and.w	r0, r0, #31
 80035a4:	fa23 f000 	lsr.w	r0, r3, r0
 80035a8:	f000 0001 	and.w	r0, r0, #1
 80035ac:	4770      	bx	lr
 80035ae:	bf00      	nop
 80035b0:	40021000 	.word	0x40021000

080035b4 <RCC_WaitForHSEStartUp>:
 80035b4:	b507      	push	{r0, r1, r2, lr}
 80035b6:	2300      	movs	r3, #0
 80035b8:	9301      	str	r3, [sp, #4]
 80035ba:	2031      	movs	r0, #49	; 0x31
 80035bc:	f7ff ffe6 	bl	800358c <RCC_GetFlagStatus>
 80035c0:	9b01      	ldr	r3, [sp, #4]
 80035c2:	3301      	adds	r3, #1
 80035c4:	9301      	str	r3, [sp, #4]
 80035c6:	9b01      	ldr	r3, [sp, #4]
 80035c8:	f5b3 6fa0 	cmp.w	r3, #1280	; 0x500
 80035cc:	d001      	beq.n	80035d2 <RCC_WaitForHSEStartUp+0x1e>
 80035ce:	2800      	cmp	r0, #0
 80035d0:	d0f3      	beq.n	80035ba <RCC_WaitForHSEStartUp+0x6>
 80035d2:	2031      	movs	r0, #49	; 0x31
 80035d4:	f7ff ffda 	bl	800358c <RCC_GetFlagStatus>
 80035d8:	3000      	adds	r0, #0
 80035da:	bf18      	it	ne
 80035dc:	2001      	movne	r0, #1
 80035de:	bd0e      	pop	{r1, r2, r3, pc}

080035e0 <RCC_ClearFlag>:
 80035e0:	4b02      	ldr	r3, [pc, #8]	; (80035ec <RCC_ClearFlag+0xc>)
 80035e2:	6a5a      	ldr	r2, [r3, #36]	; 0x24
 80035e4:	f042 7280 	orr.w	r2, r2, #16777216	; 0x1000000
 80035e8:	625a      	str	r2, [r3, #36]	; 0x24
 80035ea:	4770      	bx	lr
 80035ec:	40021000 	.word	0x40021000

080035f0 <RCC_GetITStatus>:
 80035f0:	4b03      	ldr	r3, [pc, #12]	; (8003600 <RCC_GetITStatus+0x10>)
 80035f2:	689b      	ldr	r3, [r3, #8]
 80035f4:	4218      	tst	r0, r3
 80035f6:	bf0c      	ite	eq
 80035f8:	2000      	moveq	r0, #0
 80035fa:	2001      	movne	r0, #1
 80035fc:	4770      	bx	lr
 80035fe:	bf00      	nop
 8003600:	40021000 	.word	0x40021000

08003604 <RCC_ClearITPendingBit>:
 8003604:	4b01      	ldr	r3, [pc, #4]	; (800360c <RCC_ClearITPendingBit+0x8>)
 8003606:	7018      	strb	r0, [r3, #0]
 8003608:	4770      	bx	lr
 800360a:	bf00      	nop
 800360c:	4002100a 	.word	0x4002100a

08003610 <RTC_ITConfig>:
 8003610:	4b04      	ldr	r3, [pc, #16]	; (8003624 <RTC_ITConfig+0x14>)
 8003612:	881a      	ldrh	r2, [r3, #0]
 8003614:	b292      	uxth	r2, r2
 8003616:	b109      	cbz	r1, 800361c <RTC_ITConfig+0xc>
 8003618:	4310      	orrs	r0, r2
 800361a:	e001      	b.n	8003620 <RTC_ITConfig+0x10>
 800361c:	ea22 0000 	bic.w	r0, r2, r0
 8003620:	8018      	strh	r0, [r3, #0]
 8003622:	4770      	bx	lr
 8003624:	40002800 	.word	0x40002800

08003628 <RTC_EnterConfigMode>:
 8003628:	4b03      	ldr	r3, [pc, #12]	; (8003638 <RTC_EnterConfigMode+0x10>)
 800362a:	889a      	ldrh	r2, [r3, #4]
 800362c:	b292      	uxth	r2, r2
 800362e:	f042 0210 	orr.w	r2, r2, #16
 8003632:	809a      	strh	r2, [r3, #4]
 8003634:	4770      	bx	lr
 8003636:	bf00      	nop
 8003638:	40002800 	.word	0x40002800

0800363c <RTC_ExitConfigMode>:
 800363c:	4a03      	ldr	r2, [pc, #12]	; (800364c <RTC_ExitConfigMode+0x10>)
 800363e:	8893      	ldrh	r3, [r2, #4]
 8003640:	f023 0310 	bic.w	r3, r3, #16
 8003644:	041b      	lsls	r3, r3, #16
 8003646:	0c1b      	lsrs	r3, r3, #16
 8003648:	8093      	strh	r3, [r2, #4]
 800364a:	4770      	bx	lr
 800364c:	40002800 	.word	0x40002800

08003650 <RTC_GetCounter>:
 8003650:	4b03      	ldr	r3, [pc, #12]	; (8003660 <RTC_GetCounter+0x10>)
 8003652:	8b9a      	ldrh	r2, [r3, #28]
 8003654:	8b18      	ldrh	r0, [r3, #24]
 8003656:	b292      	uxth	r2, r2
 8003658:	ea42 4000 	orr.w	r0, r2, r0, lsl #16
 800365c:	4770      	bx	lr
 800365e:	bf00      	nop
 8003660:	40002800 	.word	0x40002800

08003664 <RTC_SetCounter>:
 8003664:	b510      	push	{r4, lr}
 8003666:	4604      	mov	r4, r0
 8003668:	f7ff ffde 	bl	8003628 <RTC_EnterConfigMode>
 800366c:	4b04      	ldr	r3, [pc, #16]	; (8003680 <RTC_SetCounter+0x1c>)
 800366e:	0c22      	lsrs	r2, r4, #16
 8003670:	b2a4      	uxth	r4, r4
 8003672:	831a      	strh	r2, [r3, #24]
 8003674:	839c      	strh	r4, [r3, #28]
 8003676:	e8bd 4010 	ldmia.w	sp!, {r4, lr}
 800367a:	f7ff bfdf 	b.w	800363c <RTC_ExitConfigMode>
 800367e:	bf00      	nop
 8003680:	40002800 	.word	0x40002800

08003684 <RTC_SetPrescaler>:
 8003684:	b510      	push	{r4, lr}
 8003686:	4604      	mov	r4, r0
 8003688:	f7ff ffce 	bl	8003628 <RTC_EnterConfigMode>
 800368c:	4b04      	ldr	r3, [pc, #16]	; (80036a0 <RTC_SetPrescaler+0x1c>)
 800368e:	f3c4 4203 	ubfx	r2, r4, #16, #4
 8003692:	b2a4      	uxth	r4, r4
 8003694:	811a      	strh	r2, [r3, #8]
 8003696:	819c      	strh	r4, [r3, #12]
 8003698:	e8bd 4010 	ldmia.w	sp!, {r4, lr}
 800369c:	f7ff bfce 	b.w	800363c <RTC_ExitConfigMode>
 80036a0:	40002800 	.word	0x40002800

080036a4 <RTC_SetAlarm>:
 80036a4:	b510      	push	{r4, lr}
 80036a6:	4604      	mov	r4, r0
 80036a8:	f7ff ffbe 	bl	8003628 <RTC_EnterConfigMode>
 80036ac:	4b04      	ldr	r3, [pc, #16]	; (80036c0 <RTC_SetAlarm+0x1c>)
 80036ae:	0c22      	lsrs	r2, r4, #16
 80036b0:	b2a4      	uxth	r4, r4
 80036b2:	841a      	strh	r2, [r3, #32]
 80036b4:	849c      	strh	r4, [r3, #36]	; 0x24
 80036b6:	e8bd 4010 	ldmia.w	sp!, {r4, lr}
 80036ba:	f7ff bfbf 	b.w	800363c <RTC_ExitConfigMode>
 80036be:	bf00      	nop
 80036c0:	40002800 	.word	0x40002800

080036c4 <RTC_GetDivider>:
 80036c4:	4b04      	ldr	r3, [pc, #16]	; (80036d8 <RTC_GetDivider+0x14>)
 80036c6:	8a18      	ldrh	r0, [r3, #16]
 80036c8:	8a9b      	ldrh	r3, [r3, #20]
 80036ca:	f000 000f 	and.w	r0, r0, #15
 80036ce:	b29b      	uxth	r3, r3
 80036d0:	ea43 4000 	orr.w	r0, r3, r0, lsl #16
 80036d4:	4770      	bx	lr
 80036d6:	bf00      	nop
 80036d8:	40002800 	.word	0x40002800

080036dc <RTC_WaitForLastTask>:
 80036dc:	4a02      	ldr	r2, [pc, #8]	; (80036e8 <RTC_WaitForLastTask+0xc>)
 80036de:	8893      	ldrh	r3, [r2, #4]
 80036e0:	069b      	lsls	r3, r3, #26
 80036e2:	d5fc      	bpl.n	80036de <RTC_WaitForLastTask+0x2>
 80036e4:	4770      	bx	lr
 80036e6:	bf00      	nop
 80036e8:	40002800 	.word	0x40002800

080036ec <RTC_WaitForSynchro>:
 80036ec:	4a05      	ldr	r2, [pc, #20]	; (8003704 <RTC_WaitForSynchro+0x18>)
 80036ee:	8893      	ldrh	r3, [r2, #4]
 80036f0:	f023 0308 	bic.w	r3, r3, #8
 80036f4:	041b      	lsls	r3, r3, #16
 80036f6:	0c1b      	lsrs	r3, r3, #16
 80036f8:	8093      	strh	r3, [r2, #4]
 80036fa:	8893      	ldrh	r3, [r2, #4]
 80036fc:	0719      	lsls	r1, r3, #28
 80036fe:	d5fc      	bpl.n	80036fa <RTC_WaitForSynchro+0xe>
 8003700:	4770      	bx	lr
 8003702:	bf00      	nop
 8003704:	40002800 	.word	0x40002800

08003708 <RTC_GetFlagStatus>:
 8003708:	4b03      	ldr	r3, [pc, #12]	; (8003718 <RTC_GetFlagStatus+0x10>)
 800370a:	889b      	ldrh	r3, [r3, #4]
 800370c:	4218      	tst	r0, r3
 800370e:	bf0c      	ite	eq
 8003710:	2000      	moveq	r0, #0
 8003712:	2001      	movne	r0, #1
 8003714:	4770      	bx	lr
 8003716:	bf00      	nop
 8003718:	40002800 	.word	0x40002800

0800371c <RTC_ClearFlag>:
 800371c:	4b03      	ldr	r3, [pc, #12]	; (800372c <RTC_ClearFlag+0x10>)
 800371e:	889a      	ldrh	r2, [r3, #4]
 8003720:	b292      	uxth	r2, r2
 8003722:	ea22 0000 	bic.w	r0, r2, r0
 8003726:	8098      	strh	r0, [r3, #4]
 8003728:	4770      	bx	lr
 800372a:	bf00      	nop
 800372c:	40002800 	.word	0x40002800

08003730 <RTC_GetITStatus>:
 8003730:	4b07      	ldr	r3, [pc, #28]	; (8003750 <RTC_GetITStatus+0x20>)
 8003732:	889a      	ldrh	r2, [r3, #4]
 8003734:	881b      	ldrh	r3, [r3, #0]
 8003736:	b292      	uxth	r2, r2
 8003738:	4003      	ands	r3, r0
 800373a:	d006      	beq.n	800374a <RTC_GetITStatus+0x1a>
 800373c:	4010      	ands	r0, r2
 800373e:	f010 0fff 	tst.w	r0, #255	; 0xff
 8003742:	bf0c      	ite	eq
 8003744:	2000      	moveq	r0, #0
 8003746:	2001      	movne	r0, #1
 8003748:	4770      	bx	lr
 800374a:	4618      	mov	r0, r3
 800374c:	4770      	bx	lr
 800374e:	bf00      	nop
 8003750:	40002800 	.word	0x40002800

08003754 <RTC_ClearITPendingBit>:
 8003754:	4b03      	ldr	r3, [pc, #12]	; (8003764 <RTC_ClearITPendingBit+0x10>)
 8003756:	889a      	ldrh	r2, [r3, #4]
 8003758:	b292      	uxth	r2, r2
 800375a:	ea22 0000 	bic.w	r0, r2, r0
 800375e:	8098      	strh	r0, [r3, #4]
 8003760:	4770      	bx	lr
 8003762:	bf00      	nop
 8003764:	40002800 	.word	0x40002800

08003768 <SDIO_DeInit>:
 8003768:	4b06      	ldr	r3, [pc, #24]	; (8003784 <SDIO_DeInit+0x1c>)
 800376a:	4907      	ldr	r1, [pc, #28]	; (8003788 <SDIO_DeInit+0x20>)
 800376c:	2200      	movs	r2, #0
 800376e:	601a      	str	r2, [r3, #0]
 8003770:	605a      	str	r2, [r3, #4]
 8003772:	609a      	str	r2, [r3, #8]
 8003774:	60da      	str	r2, [r3, #12]
 8003776:	625a      	str	r2, [r3, #36]	; 0x24
 8003778:	629a      	str	r2, [r3, #40]	; 0x28
 800377a:	62da      	str	r2, [r3, #44]	; 0x2c
 800377c:	6399      	str	r1, [r3, #56]	; 0x38
 800377e:	63da      	str	r2, [r3, #60]	; 0x3c
 8003780:	4770      	bx	lr
 8003782:	bf00      	nop
 8003784:	40018000 	.word	0x40018000
 8003788:	00c007ff 	.word	0x00c007ff

0800378c <SDIO_Init>:
 800378c:	6881      	ldr	r1, [r0, #8]
 800378e:	b510      	push	{r4, lr}
 8003790:	6844      	ldr	r4, [r0, #4]
 8003792:	4a09      	ldr	r2, [pc, #36]	; (80037b8 <SDIO_Init+0x2c>)
 8003794:	430c      	orrs	r4, r1
 8003796:	68c1      	ldr	r1, [r0, #12]
 8003798:	6853      	ldr	r3, [r2, #4]
 800379a:	430c      	orrs	r4, r1
 800379c:	6801      	ldr	r1, [r0, #0]
 800379e:	f423 43fd 	bic.w	r3, r3, #32384	; 0x7e80
 80037a2:	430c      	orrs	r4, r1
 80037a4:	6901      	ldr	r1, [r0, #16]
 80037a6:	f023 037f 	bic.w	r3, r3, #127	; 0x7f
 80037aa:	7d00      	ldrb	r0, [r0, #20]
 80037ac:	4321      	orrs	r1, r4
 80037ae:	430b      	orrs	r3, r1
 80037b0:	4303      	orrs	r3, r0
 80037b2:	6053      	str	r3, [r2, #4]
 80037b4:	bd10      	pop	{r4, pc}
 80037b6:	bf00      	nop
 80037b8:	40018000 	.word	0x40018000

080037bc <SDIO_StructInit>:
 80037bc:	2300      	movs	r3, #0
 80037be:	7503      	strb	r3, [r0, #20]
 80037c0:	6003      	str	r3, [r0, #0]
 80037c2:	6043      	str	r3, [r0, #4]
 80037c4:	6083      	str	r3, [r0, #8]
 80037c6:	60c3      	str	r3, [r0, #12]
 80037c8:	6103      	str	r3, [r0, #16]
 80037ca:	4770      	bx	lr

080037cc <SDIO_ClockCmd>:
 80037cc:	4b01      	ldr	r3, [pc, #4]	; (80037d4 <SDIO_ClockCmd+0x8>)
 80037ce:	6018      	str	r0, [r3, #0]
 80037d0:	4770      	bx	lr
 80037d2:	bf00      	nop
 80037d4:	423000a0 	.word	0x423000a0

080037d8 <SDIO_SetPowerState>:
 80037d8:	4b04      	ldr	r3, [pc, #16]	; (80037ec <SDIO_SetPowerState+0x14>)
 80037da:	681a      	ldr	r2, [r3, #0]
 80037dc:	f022 0203 	bic.w	r2, r2, #3
 80037e0:	601a      	str	r2, [r3, #0]
 80037e2:	681a      	ldr	r2, [r3, #0]
 80037e4:	4310      	orrs	r0, r2
 80037e6:	6018      	str	r0, [r3, #0]
 80037e8:	4770      	bx	lr
 80037ea:	bf00      	nop
 80037ec:	40018000 	.word	0x40018000

080037f0 <SDIO_GetPowerState>:
 80037f0:	4b02      	ldr	r3, [pc, #8]	; (80037fc <SDIO_GetPowerState+0xc>)
 80037f2:	6818      	ldr	r0, [r3, #0]
 80037f4:	f000 0003 	and.w	r0, r0, #3
 80037f8:	4770      	bx	lr
 80037fa:	bf00      	nop
 80037fc:	40018000 	.word	0x40018000

08003800 <SDIO_ITConfig>:
 8003800:	4b04      	ldr	r3, [pc, #16]	; (8003814 <SDIO_ITConfig+0x14>)
 8003802:	6bda      	ldr	r2, [r3, #60]	; 0x3c
 8003804:	b109      	cbz	r1, 800380a <SDIO_ITConfig+0xa>
 8003806:	4310      	orrs	r0, r2
 8003808:	e001      	b.n	800380e <SDIO_ITConfig+0xe>
 800380a:	ea22 0000 	bic.w	r0, r2, r0
 800380e:	63d8      	str	r0, [r3, #60]	; 0x3c
 8003810:	4770      	bx	lr
 8003812:	bf00      	nop
 8003814:	40018000 	.word	0x40018000

08003818 <SDIO_DMACmd>:
 8003818:	4b01      	ldr	r3, [pc, #4]	; (8003820 <SDIO_DMACmd+0x8>)
 800381a:	6018      	str	r0, [r3, #0]
 800381c:	4770      	bx	lr
 800381e:	bf00      	nop
 8003820:	4230058c 	.word	0x4230058c

08003824 <SDIO_SendCommand>:
 8003824:	6802      	ldr	r2, [r0, #0]
 8003826:	4b09      	ldr	r3, [pc, #36]	; (800384c <SDIO_SendCommand+0x28>)
 8003828:	b510      	push	{r4, lr}
 800382a:	609a      	str	r2, [r3, #8]
 800382c:	6841      	ldr	r1, [r0, #4]
 800382e:	6884      	ldr	r4, [r0, #8]
 8003830:	68da      	ldr	r2, [r3, #12]
 8003832:	430c      	orrs	r4, r1
 8003834:	68c1      	ldr	r1, [r0, #12]
 8003836:	6900      	ldr	r0, [r0, #16]
 8003838:	f422 62ff 	bic.w	r2, r2, #2040	; 0x7f8
 800383c:	4321      	orrs	r1, r4
 800383e:	f022 0207 	bic.w	r2, r2, #7
 8003842:	4301      	orrs	r1, r0
 8003844:	430a      	orrs	r2, r1
 8003846:	60da      	str	r2, [r3, #12]
 8003848:	bd10      	pop	{r4, pc}
 800384a:	bf00      	nop
 800384c:	40018000 	.word	0x40018000

08003850 <SDIO_CmdStructInit>:
 8003850:	2300      	movs	r3, #0
 8003852:	6003      	str	r3, [r0, #0]
 8003854:	6043      	str	r3, [r0, #4]
 8003856:	6083      	str	r3, [r0, #8]
 8003858:	60c3      	str	r3, [r0, #12]
 800385a:	6103      	str	r3, [r0, #16]
 800385c:	4770      	bx	lr

0800385e <SDIO_GetCommandResponse>:
 800385e:	4b02      	ldr	r3, [pc, #8]	; (8003868 <SDIO_GetCommandResponse+0xa>)
 8003860:	6918      	ldr	r0, [r3, #16]
 8003862:	b2c0      	uxtb	r0, r0
 8003864:	4770      	bx	lr
 8003866:	bf00      	nop
 8003868:	40018000 	.word	0x40018000

0800386c <SDIO_GetResponse>:
 800386c:	b082      	sub	sp, #8
 800386e:	2300      	movs	r3, #0
 8003870:	9301      	str	r3, [sp, #4]
 8003872:	4b03      	ldr	r3, [pc, #12]	; (8003880 <SDIO_GetResponse+0x14>)
 8003874:	18c3      	adds	r3, r0, r3
 8003876:	9301      	str	r3, [sp, #4]
 8003878:	9b01      	ldr	r3, [sp, #4]
 800387a:	6818      	ldr	r0, [r3, #0]
 800387c:	b002      	add	sp, #8
 800387e:	4770      	bx	lr
 8003880:	40018014 	.word	0x40018014

08003884 <SDIO_DataConfig>:
 8003884:	6802      	ldr	r2, [r0, #0]
 8003886:	4b09      	ldr	r3, [pc, #36]	; (80038ac <SDIO_DataConfig+0x28>)
 8003888:	b510      	push	{r4, lr}
 800388a:	625a      	str	r2, [r3, #36]	; 0x24
 800388c:	6842      	ldr	r2, [r0, #4]
 800388e:	629a      	str	r2, [r3, #40]	; 0x28
 8003890:	68c2      	ldr	r2, [r0, #12]
 8003892:	6881      	ldr	r1, [r0, #8]
 8003894:	6adc      	ldr	r4, [r3, #44]	; 0x2c
 8003896:	4311      	orrs	r1, r2
 8003898:	6902      	ldr	r2, [r0, #16]
 800389a:	6940      	ldr	r0, [r0, #20]
 800389c:	430a      	orrs	r2, r1
 800389e:	f024 04f7 	bic.w	r4, r4, #247	; 0xf7
 80038a2:	4302      	orrs	r2, r0
 80038a4:	4322      	orrs	r2, r4
 80038a6:	62da      	str	r2, [r3, #44]	; 0x2c
 80038a8:	bd10      	pop	{r4, pc}
 80038aa:	bf00      	nop
 80038ac:	40018000 	.word	0x40018000

080038b0 <SDIO_DataStructInit>:
 80038b0:	f04f 33ff 	mov.w	r3, #4294967295	; 0xffffffff
 80038b4:	6003      	str	r3, [r0, #0]
 80038b6:	2300      	movs	r3, #0
 80038b8:	6043      	str	r3, [r0, #4]
 80038ba:	6083      	str	r3, [r0, #8]
 80038bc:	60c3      	str	r3, [r0, #12]
 80038be:	6103      	str	r3, [r0, #16]
 80038c0:	6143      	str	r3, [r0, #20]
 80038c2:	4770      	bx	lr

080038c4 <SDIO_GetDataCounter>:
 80038c4:	4b01      	ldr	r3, [pc, #4]	; (80038cc <SDIO_GetDataCounter+0x8>)
 80038c6:	6b18      	ldr	r0, [r3, #48]	; 0x30
 80038c8:	4770      	bx	lr
 80038ca:	bf00      	nop
 80038cc:	40018000 	.word	0x40018000

080038d0 <SDIO_ReadData>:
 80038d0:	4b01      	ldr	r3, [pc, #4]	; (80038d8 <SDIO_ReadData+0x8>)
 80038d2:	f8d3 0080 	ldr.w	r0, [r3, #128]	; 0x80
 80038d6:	4770      	bx	lr
 80038d8:	40018000 	.word	0x40018000

080038dc <SDIO_WriteData>:
 80038dc:	4b01      	ldr	r3, [pc, #4]	; (80038e4 <SDIO_WriteData+0x8>)
 80038de:	f8c3 0080 	str.w	r0, [r3, #128]	; 0x80
 80038e2:	4770      	bx	lr
 80038e4:	40018000 	.word	0x40018000

080038e8 <SDIO_GetFIFOCount>:
 80038e8:	4b01      	ldr	r3, [pc, #4]	; (80038f0 <SDIO_GetFIFOCount+0x8>)
 80038ea:	6c98      	ldr	r0, [r3, #72]	; 0x48
 80038ec:	4770      	bx	lr
 80038ee:	bf00      	nop
 80038f0:	40018000 	.word	0x40018000

080038f4 <SDIO_StartSDIOReadWait>:
 80038f4:	4b01      	ldr	r3, [pc, #4]	; (80038fc <SDIO_StartSDIOReadWait+0x8>)
 80038f6:	6018      	str	r0, [r3, #0]
 80038f8:	4770      	bx	lr
 80038fa:	bf00      	nop
 80038fc:	423005a0 	.word	0x423005a0

08003900 <SDIO_StopSDIOReadWait>:
 8003900:	4b01      	ldr	r3, [pc, #4]	; (8003908 <SDIO_StopSDIOReadWait+0x8>)
 8003902:	6018      	str	r0, [r3, #0]
 8003904:	4770      	bx	lr
 8003906:	bf00      	nop
 8003908:	423005a4 	.word	0x423005a4

0800390c <SDIO_SetSDIOReadWaitMode>:
 800390c:	4b01      	ldr	r3, [pc, #4]	; (8003914 <SDIO_SetSDIOReadWaitMode+0x8>)
 800390e:	6018      	str	r0, [r3, #0]
 8003910:	4770      	bx	lr
 8003912:	bf00      	nop
 8003914:	423005a8 	.word	0x423005a8

08003918 <SDIO_SetSDIOOperation>:
 8003918:	4b01      	ldr	r3, [pc, #4]	; (8003920 <SDIO_SetSDIOOperation+0x8>)
 800391a:	6018      	str	r0, [r3, #0]
 800391c:	4770      	bx	lr
 800391e:	bf00      	nop
 8003920:	423005ac 	.word	0x423005ac

08003924 <SDIO_SendSDIOSuspendCmd>:
 8003924:	4b01      	ldr	r3, [pc, #4]	; (800392c <SDIO_SendSDIOSuspendCmd+0x8>)
 8003926:	6018      	str	r0, [r3, #0]
 8003928:	4770      	bx	lr
 800392a:	bf00      	nop
 800392c:	423001ac 	.word	0x423001ac

08003930 <SDIO_CommandCompletionCmd>:
 8003930:	4b01      	ldr	r3, [pc, #4]	; (8003938 <SDIO_CommandCompletionCmd+0x8>)
 8003932:	6018      	str	r0, [r3, #0]
 8003934:	4770      	bx	lr
 8003936:	bf00      	nop
 8003938:	423001b0 	.word	0x423001b0

0800393c <SDIO_CEATAITCmd>:
 800393c:	f000 0001 	and.w	r0, r0, #1
 8003940:	4b02      	ldr	r3, [pc, #8]	; (800394c <SDIO_CEATAITCmd+0x10>)
 8003942:	f080 0001 	eor.w	r0, r0, #1
 8003946:	6018      	str	r0, [r3, #0]
 8003948:	4770      	bx	lr
 800394a:	bf00      	nop
 800394c:	423001b4 	.word	0x423001b4

08003950 <SDIO_SendCEATACmd>:
 8003950:	4b01      	ldr	r3, [pc, #4]	; (8003958 <SDIO_SendCEATACmd+0x8>)
 8003952:	6018      	str	r0, [r3, #0]
 8003954:	4770      	bx	lr
 8003956:	bf00      	nop
 8003958:	423001b8 	.word	0x423001b8

0800395c <SDIO_GetFlagStatus>:
 800395c:	4b03      	ldr	r3, [pc, #12]	; (800396c <SDIO_GetFlagStatus+0x10>)
 800395e:	6b5b      	ldr	r3, [r3, #52]	; 0x34
 8003960:	4218      	tst	r0, r3
 8003962:	bf0c      	ite	eq
 8003964:	2000      	moveq	r0, #0
 8003966:	2001      	movne	r0, #1
 8003968:	4770      	bx	lr
 800396a:	bf00      	nop
 800396c:	40018000 	.word	0x40018000

08003970 <SDIO_ClearFlag>:
 8003970:	4b01      	ldr	r3, [pc, #4]	; (8003978 <SDIO_ClearFlag+0x8>)
 8003972:	6398      	str	r0, [r3, #56]	; 0x38
 8003974:	4770      	bx	lr
 8003976:	bf00      	nop
 8003978:	40018000 	.word	0x40018000

0800397c <SDIO_GetITStatus>:
 800397c:	4b03      	ldr	r3, [pc, #12]	; (800398c <SDIO_GetITStatus+0x10>)
 800397e:	6b5b      	ldr	r3, [r3, #52]	; 0x34
 8003980:	4218      	tst	r0, r3
 8003982:	bf0c      	ite	eq
 8003984:	2000      	moveq	r0, #0
 8003986:	2001      	movne	r0, #1
 8003988:	4770      	bx	lr
 800398a:	bf00      	nop
 800398c:	40018000 	.word	0x40018000

08003990 <SDIO_ClearITPendingBit>:
 8003990:	4b01      	ldr	r3, [pc, #4]	; (8003998 <SDIO_ClearITPendingBit+0x8>)
 8003992:	6398      	str	r0, [r3, #56]	; 0x38
 8003994:	4770      	bx	lr
 8003996:	bf00      	nop
 8003998:	40018000 	.word	0x40018000

0800399c <SPI_I2S_DeInit>:
 800399c:	b508      	push	{r3, lr}
 800399e:	4b15      	ldr	r3, [pc, #84]	; (80039f4 <SPI_I2S_DeInit+0x58>)
 80039a0:	4298      	cmp	r0, r3
 80039a2:	d10b      	bne.n	80039bc <SPI_I2S_DeInit+0x20>
 80039a4:	f44f 5080 	mov.w	r0, #4096	; 0x1000
 80039a8:	2101      	movs	r1, #1
 80039aa:	f7ff fdc5 	bl	8003538 <RCC_APB2PeriphResetCmd>
 80039ae:	f44f 5080 	mov.w	r0, #4096	; 0x1000
 80039b2:	2100      	movs	r1, #0
 80039b4:	e8bd 4008 	ldmia.w	sp!, {r3, lr}
 80039b8:	f7ff bdbe 	b.w	8003538 <RCC_APB2PeriphResetCmd>
 80039bc:	4b0e      	ldr	r3, [pc, #56]	; (80039f8 <SPI_I2S_DeInit+0x5c>)
 80039be:	4298      	cmp	r0, r3
 80039c0:	d107      	bne.n	80039d2 <SPI_I2S_DeInit+0x36>
 80039c2:	f44f 4080 	mov.w	r0, #16384	; 0x4000
 80039c6:	2101      	movs	r1, #1
 80039c8:	f7ff fdc2 	bl	8003550 <RCC_APB1PeriphResetCmd>
 80039cc:	f44f 4080 	mov.w	r0, #16384	; 0x4000
 80039d0:	e009      	b.n	80039e6 <SPI_I2S_DeInit+0x4a>
 80039d2:	4b0a      	ldr	r3, [pc, #40]	; (80039fc <SPI_I2S_DeInit+0x60>)
 80039d4:	4298      	cmp	r0, r3
 80039d6:	d10b      	bne.n	80039f0 <SPI_I2S_DeInit+0x54>
 80039d8:	f44f 4000 	mov.w	r0, #32768	; 0x8000
 80039dc:	2101      	movs	r1, #1
 80039de:	f7ff fdb7 	bl	8003550 <RCC_APB1PeriphResetCmd>
 80039e2:	f44f 4000 	mov.w	r0, #32768	; 0x8000
 80039e6:	2100      	movs	r1, #0
 80039e8:	e8bd 4008 	ldmia.w	sp!, {r3, lr}
 80039ec:	f7ff bdb0 	b.w	8003550 <RCC_APB1PeriphResetCmd>
 80039f0:	bd08      	pop	{r3, pc}
 80039f2:	bf00      	nop
 80039f4:	40013000 	.word	0x40013000
 80039f8:	40003800 	.word	0x40003800
 80039fc:	40003c00 	.word	0x40003c00

08003a00 <SPI_Init>:
 8003a00:	880b      	ldrh	r3, [r1, #0]
 8003a02:	b510      	push	{r4, lr}
 8003a04:	884c      	ldrh	r4, [r1, #2]
 8003a06:	8802      	ldrh	r2, [r0, #0]
 8003a08:	4323      	orrs	r3, r4
 8003a0a:	888c      	ldrh	r4, [r1, #4]
 8003a0c:	f402 5241 	and.w	r2, r2, #12352	; 0x3040
 8003a10:	4323      	orrs	r3, r4
 8003a12:	88cc      	ldrh	r4, [r1, #6]
 8003a14:	4323      	orrs	r3, r4
 8003a16:	890c      	ldrh	r4, [r1, #8]
 8003a18:	4323      	orrs	r3, r4
 8003a1a:	894c      	ldrh	r4, [r1, #10]
 8003a1c:	4323      	orrs	r3, r4
 8003a1e:	898c      	ldrh	r4, [r1, #12]
 8003a20:	4323      	orrs	r3, r4
 8003a22:	89cc      	ldrh	r4, [r1, #14]
 8003a24:	4323      	orrs	r3, r4
 8003a26:	4313      	orrs	r3, r2
 8003a28:	b29b      	uxth	r3, r3
 8003a2a:	8003      	strh	r3, [r0, #0]
 8003a2c:	8b83      	ldrh	r3, [r0, #28]
 8003a2e:	f423 6300 	bic.w	r3, r3, #2048	; 0x800
 8003a32:	041b      	lsls	r3, r3, #16
 8003a34:	0c1b      	lsrs	r3, r3, #16
 8003a36:	8383      	strh	r3, [r0, #28]
 8003a38:	8a0b      	ldrh	r3, [r1, #16]
 8003a3a:	8203      	strh	r3, [r0, #16]
 8003a3c:	bd10      	pop	{r4, pc}

08003a3e <I2S_Init>:
 8003a3e:	8b83      	ldrh	r3, [r0, #28]
 8003a40:	b5f0      	push	{r4, r5, r6, r7, lr}
 8003a42:	f423 637b 	bic.w	r3, r3, #4016	; 0xfb0
 8003a46:	f023 030f 	bic.w	r3, r3, #15
 8003a4a:	041b      	lsls	r3, r3, #16
 8003a4c:	0c1b      	lsrs	r3, r3, #16
 8003a4e:	8383      	strh	r3, [r0, #28]
 8003a50:	2302      	movs	r3, #2
 8003a52:	8403      	strh	r3, [r0, #32]
 8003a54:	688b      	ldr	r3, [r1, #8]
 8003a56:	8b86      	ldrh	r6, [r0, #28]
 8003a58:	2b02      	cmp	r3, #2
 8003a5a:	b087      	sub	sp, #28
 8003a5c:	4605      	mov	r5, r0
 8003a5e:	460c      	mov	r4, r1
 8003a60:	b2b6      	uxth	r6, r6
 8003a62:	d021      	beq.n	8003aa8 <I2S_Init+0x6a>
 8003a64:	a801      	add	r0, sp, #4
 8003a66:	888f      	ldrh	r7, [r1, #4]
 8003a68:	f7ff fcfc 	bl	8003464 <RCC_GetClocksFreq>
 8003a6c:	88e3      	ldrh	r3, [r4, #6]
 8003a6e:	9a01      	ldr	r2, [sp, #4]
 8003a70:	2f00      	cmp	r7, #0
 8003a72:	bf14      	ite	ne
 8003a74:	2702      	movne	r7, #2
 8003a76:	2701      	moveq	r7, #1
 8003a78:	f5b3 7f00 	cmp.w	r3, #512	; 0x200
 8003a7c:	bf16      	itet	ne
 8003a7e:	017f      	lslne	r7, r7, #5
 8003a80:	0a12      	lsreq	r2, r2, #8
 8003a82:	fbb2 f2f7 	udivne	r2, r2, r7
 8003a86:	230a      	movs	r3, #10
 8003a88:	4353      	muls	r3, r2
 8003a8a:	68a1      	ldr	r1, [r4, #8]
 8003a8c:	220a      	movs	r2, #10
 8003a8e:	fbb3 f3f1 	udiv	r3, r3, r1
 8003a92:	3305      	adds	r3, #5
 8003a94:	b29b      	uxth	r3, r3
 8003a96:	fbb3 f3f2 	udiv	r3, r3, r2
 8003a9a:	f003 0201 	and.w	r2, r3, #1
 8003a9e:	0212      	lsls	r2, r2, #8
 8003aa0:	f3c3 034f 	ubfx	r3, r3, #1, #16
 8003aa4:	b292      	uxth	r2, r2
 8003aa6:	e000      	b.n	8003aaa <I2S_Init+0x6c>
 8003aa8:	2200      	movs	r2, #0
 8003aaa:	1e99      	subs	r1, r3, #2
 8003aac:	b289      	uxth	r1, r1
 8003aae:	29fe      	cmp	r1, #254	; 0xfe
 8003ab0:	bf28      	it	cs
 8003ab2:	2200      	movcs	r2, #0
 8003ab4:	88e1      	ldrh	r1, [r4, #6]
 8003ab6:	bf28      	it	cs
 8003ab8:	2302      	movcs	r3, #2
 8003aba:	4313      	orrs	r3, r2
 8003abc:	430b      	orrs	r3, r1
 8003abe:	b29b      	uxth	r3, r3
 8003ac0:	842b      	strh	r3, [r5, #32]
 8003ac2:	8823      	ldrh	r3, [r4, #0]
 8003ac4:	8862      	ldrh	r2, [r4, #2]
 8003ac6:	4333      	orrs	r3, r6
 8003ac8:	f443 6300 	orr.w	r3, r3, #2048	; 0x800
 8003acc:	4313      	orrs	r3, r2
 8003ace:	88a2      	ldrh	r2, [r4, #4]
 8003ad0:	4313      	orrs	r3, r2
 8003ad2:	89a2      	ldrh	r2, [r4, #12]
 8003ad4:	4313      	orrs	r3, r2
 8003ad6:	b29b      	uxth	r3, r3
 8003ad8:	83ab      	strh	r3, [r5, #28]
 8003ada:	b007      	add	sp, #28
 8003adc:	bdf0      	pop	{r4, r5, r6, r7, pc}

08003ade <SPI_StructInit>:
 8003ade:	2300      	movs	r3, #0
 8003ae0:	8003      	strh	r3, [r0, #0]
 8003ae2:	8043      	strh	r3, [r0, #2]
 8003ae4:	8083      	strh	r3, [r0, #4]
 8003ae6:	80c3      	strh	r3, [r0, #6]
 8003ae8:	8103      	strh	r3, [r0, #8]
 8003aea:	8143      	strh	r3, [r0, #10]
 8003aec:	8183      	strh	r3, [r0, #12]
 8003aee:	81c3      	strh	r3, [r0, #14]
 8003af0:	2307      	movs	r3, #7
 8003af2:	8203      	strh	r3, [r0, #16]
 8003af4:	4770      	bx	lr

08003af6 <I2S_StructInit>:
 8003af6:	2300      	movs	r3, #0
 8003af8:	2202      	movs	r2, #2
 8003afa:	8003      	strh	r3, [r0, #0]
 8003afc:	8043      	strh	r3, [r0, #2]
 8003afe:	8083      	strh	r3, [r0, #4]
 8003b00:	80c3      	strh	r3, [r0, #6]
 8003b02:	6082      	str	r2, [r0, #8]
 8003b04:	8183      	strh	r3, [r0, #12]
 8003b06:	4770      	bx	lr

08003b08 <SPI_Cmd>:
 8003b08:	8803      	ldrh	r3, [r0, #0]
 8003b0a:	b119      	cbz	r1, 8003b14 <SPI_Cmd+0xc>
 8003b0c:	b29b      	uxth	r3, r3
 8003b0e:	f043 0340 	orr.w	r3, r3, #64	; 0x40
 8003b12:	e003      	b.n	8003b1c <SPI_Cmd+0x14>
 8003b14:	f023 0340 	bic.w	r3, r3, #64	; 0x40
 8003b18:	041b      	lsls	r3, r3, #16
 8003b1a:	0c1b      	lsrs	r3, r3, #16
 8003b1c:	8003      	strh	r3, [r0, #0]
 8003b1e:	4770      	bx	lr

08003b20 <I2S_Cmd>:
 8003b20:	8b83      	ldrh	r3, [r0, #28]
 8003b22:	b119      	cbz	r1, 8003b2c <I2S_Cmd+0xc>
 8003b24:	b29b      	uxth	r3, r3
 8003b26:	f443 6380 	orr.w	r3, r3, #1024	; 0x400
 8003b2a:	e003      	b.n	8003b34 <I2S_Cmd+0x14>
 8003b2c:	f423 6380 	bic.w	r3, r3, #1024	; 0x400
 8003b30:	041b      	lsls	r3, r3, #16
 8003b32:	0c1b      	lsrs	r3, r3, #16
 8003b34:	8383      	strh	r3, [r0, #28]
 8003b36:	4770      	bx	lr

08003b38 <SPI_I2S_ITConfig>:
 8003b38:	0909      	lsrs	r1, r1, #4
 8003b3a:	2301      	movs	r3, #1
 8003b3c:	408b      	lsls	r3, r1
 8003b3e:	b29b      	uxth	r3, r3
 8003b40:	b11a      	cbz	r2, 8003b4a <SPI_I2S_ITConfig+0x12>
 8003b42:	8882      	ldrh	r2, [r0, #4]
 8003b44:	b292      	uxth	r2, r2
 8003b46:	4313      	orrs	r3, r2
 8003b48:	e003      	b.n	8003b52 <SPI_I2S_ITConfig+0x1a>
 8003b4a:	8882      	ldrh	r2, [r0, #4]
 8003b4c:	b292      	uxth	r2, r2
 8003b4e:	ea22 0303 	bic.w	r3, r2, r3
 8003b52:	8083      	strh	r3, [r0, #4]
 8003b54:	4770      	bx	lr

08003b56 <SPI_I2S_DMACmd>:
 8003b56:	8883      	ldrh	r3, [r0, #4]
 8003b58:	b29b      	uxth	r3, r3
 8003b5a:	b10a      	cbz	r2, 8003b60 <SPI_I2S_DMACmd+0xa>
 8003b5c:	4319      	orrs	r1, r3
 8003b5e:	e001      	b.n	8003b64 <SPI_I2S_DMACmd+0xe>
 8003b60:	ea23 0101 	bic.w	r1, r3, r1
 8003b64:	8081      	strh	r1, [r0, #4]
 8003b66:	4770      	bx	lr

08003b68 <SPI_I2S_SendData>:
 8003b68:	8181      	strh	r1, [r0, #12]
 8003b6a:	4770      	bx	lr

08003b6c <SPI_I2S_ReceiveData>:
 8003b6c:	8980      	ldrh	r0, [r0, #12]
 8003b6e:	b280      	uxth	r0, r0
 8003b70:	4770      	bx	lr

08003b72 <SPI_NSSInternalSoftwareConfig>:
 8003b72:	f64f 63ff 	movw	r3, #65279	; 0xfeff
 8003b76:	4299      	cmp	r1, r3
 8003b78:	8803      	ldrh	r3, [r0, #0]
 8003b7a:	d003      	beq.n	8003b84 <SPI_NSSInternalSoftwareConfig+0x12>
 8003b7c:	b29b      	uxth	r3, r3
 8003b7e:	f443 7380 	orr.w	r3, r3, #256	; 0x100
 8003b82:	e003      	b.n	8003b8c <SPI_NSSInternalSoftwareConfig+0x1a>
 8003b84:	f423 7380 	bic.w	r3, r3, #256	; 0x100
 8003b88:	041b      	lsls	r3, r3, #16
 8003b8a:	0c1b      	lsrs	r3, r3, #16
 8003b8c:	8003      	strh	r3, [r0, #0]
 8003b8e:	4770      	bx	lr

08003b90 <SPI_SSOutputCmd>:
 8003b90:	8883      	ldrh	r3, [r0, #4]
 8003b92:	b119      	cbz	r1, 8003b9c <SPI_SSOutputCmd+0xc>
 8003b94:	b29b      	uxth	r3, r3
 8003b96:	f043 0304 	orr.w	r3, r3, #4
 8003b9a:	e003      	b.n	8003ba4 <SPI_SSOutputCmd+0x14>
 8003b9c:	f023 0304 	bic.w	r3, r3, #4
 8003ba0:	041b      	lsls	r3, r3, #16
 8003ba2:	0c1b      	lsrs	r3, r3, #16
 8003ba4:	8083      	strh	r3, [r0, #4]
 8003ba6:	4770      	bx	lr

08003ba8 <SPI_DataSizeConfig>:
 8003ba8:	8803      	ldrh	r3, [r0, #0]
 8003baa:	f423 6300 	bic.w	r3, r3, #2048	; 0x800
 8003bae:	041b      	lsls	r3, r3, #16
 8003bb0:	0c1b      	lsrs	r3, r3, #16
 8003bb2:	8003      	strh	r3, [r0, #0]
 8003bb4:	8803      	ldrh	r3, [r0, #0]
 8003bb6:	b29b      	uxth	r3, r3
 8003bb8:	4319      	orrs	r1, r3
 8003bba:	8001      	strh	r1, [r0, #0]
 8003bbc:	4770      	bx	lr

08003bbe <SPI_TransmitCRC>:
 8003bbe:	8803      	ldrh	r3, [r0, #0]
 8003bc0:	b29b      	uxth	r3, r3
 8003bc2:	f443 5380 	orr.w	r3, r3, #4096	; 0x1000
 8003bc6:	8003      	strh	r3, [r0, #0]
 8003bc8:	4770      	bx	lr

08003bca <SPI_CalculateCRC>:
 8003bca:	8803      	ldrh	r3, [r0, #0]
 8003bcc:	b119      	cbz	r1, 8003bd6 <SPI_CalculateCRC+0xc>
 8003bce:	b29b      	uxth	r3, r3
 8003bd0:	f443 5300 	orr.w	r3, r3, #8192	; 0x2000
 8003bd4:	e003      	b.n	8003bde <SPI_CalculateCRC+0x14>
 8003bd6:	f423 5300 	bic.w	r3, r3, #8192	; 0x2000
 8003bda:	041b      	lsls	r3, r3, #16
 8003bdc:	0c1b      	lsrs	r3, r3, #16
 8003bde:	8003      	strh	r3, [r0, #0]
 8003be0:	4770      	bx	lr

08003be2 <SPI_GetCRC>:
 8003be2:	2901      	cmp	r1, #1
 8003be4:	bf14      	ite	ne
 8003be6:	8b00      	ldrhne	r0, [r0, #24]
 8003be8:	8a80      	ldrheq	r0, [r0, #20]
 8003bea:	b280      	uxth	r0, r0
 8003bec:	4770      	bx	lr

08003bee <SPI_GetCRCPolynomial>:
 8003bee:	8a00      	ldrh	r0, [r0, #16]
 8003bf0:	b280      	uxth	r0, r0
 8003bf2:	4770      	bx	lr

08003bf4 <SPI_BiDirectionalLineConfig>:
 8003bf4:	f5b1 4f80 	cmp.w	r1, #16384	; 0x4000
 8003bf8:	8803      	ldrh	r3, [r0, #0]
 8003bfa:	d103      	bne.n	8003c04 <SPI_BiDirectionalLineConfig+0x10>
 8003bfc:	b29b      	uxth	r3, r3
 8003bfe:	f443 4380 	orr.w	r3, r3, #16384	; 0x4000
 8003c02:	e003      	b.n	8003c0c <SPI_BiDirectionalLineConfig+0x18>
 8003c04:	f423 4380 	bic.w	r3, r3, #16384	; 0x4000
 8003c08:	041b      	lsls	r3, r3, #16
 8003c0a:	0c1b      	lsrs	r3, r3, #16
 8003c0c:	8003      	strh	r3, [r0, #0]
 8003c0e:	4770      	bx	lr

08003c10 <SPI_I2S_GetFlagStatus>:
 8003c10:	8903      	ldrh	r3, [r0, #8]
 8003c12:	4219      	tst	r1, r3
 8003c14:	bf0c      	ite	eq
 8003c16:	2000      	moveq	r0, #0
 8003c18:	2001      	movne	r0, #1
 8003c1a:	4770      	bx	lr

08003c1c <SPI_I2S_ClearFlag>:
 8003c1c:	43c9      	mvns	r1, r1
 8003c1e:	b289      	uxth	r1, r1
 8003c20:	8101      	strh	r1, [r0, #8]
 8003c22:	4770      	bx	lr

08003c24 <SPI_I2S_GetITStatus>:
 8003c24:	f001 020f 	and.w	r2, r1, #15
 8003c28:	2301      	movs	r3, #1
 8003c2a:	fa03 f202 	lsl.w	r2, r3, r2
 8003c2e:	b510      	push	{r4, lr}
 8003c30:	8884      	ldrh	r4, [r0, #4]
 8003c32:	8900      	ldrh	r0, [r0, #8]
 8003c34:	b2a4      	uxth	r4, r4
 8003c36:	b280      	uxth	r0, r0
 8003c38:	4010      	ands	r0, r2
 8003c3a:	d005      	beq.n	8003c48 <SPI_I2S_GetITStatus+0x24>
 8003c3c:	0909      	lsrs	r1, r1, #4
 8003c3e:	408b      	lsls	r3, r1
 8003c40:	421c      	tst	r4, r3
 8003c42:	bf0c      	ite	eq
 8003c44:	2000      	moveq	r0, #0
 8003c46:	2001      	movne	r0, #1
 8003c48:	bd10      	pop	{r4, pc}

08003c4a <SPI_I2S_ClearITPendingBit>:
 8003c4a:	f001 010f 	and.w	r1, r1, #15
 8003c4e:	2301      	movs	r3, #1
 8003c50:	408b      	lsls	r3, r1
 8003c52:	43db      	mvns	r3, r3
 8003c54:	b29b      	uxth	r3, r3
 8003c56:	8103      	strh	r3, [r0, #8]
 8003c58:	4770      	bx	lr
 8003c5a:	bf00      	nop

08003c5c <TI1_Config>:
 8003c5c:	b530      	push	{r4, r5, lr}
 8003c5e:	8c04      	ldrh	r4, [r0, #32]
 8003c60:	f024 0401 	bic.w	r4, r4, #1
 8003c64:	0424      	lsls	r4, r4, #16
 8003c66:	0c24      	lsrs	r4, r4, #16
 8003c68:	8404      	strh	r4, [r0, #32]
 8003c6a:	8b05      	ldrh	r5, [r0, #24]
 8003c6c:	8c04      	ldrh	r4, [r0, #32]
 8003c6e:	b2ad      	uxth	r5, r5
 8003c70:	f025 05f3 	bic.w	r5, r5, #243	; 0xf3
 8003c74:	b2a4      	uxth	r4, r4
 8003c76:	432a      	orrs	r2, r5
 8003c78:	f024 0402 	bic.w	r4, r4, #2
 8003c7c:	ea42 1303 	orr.w	r3, r2, r3, lsl #4
 8003c80:	f044 0401 	orr.w	r4, r4, #1
 8003c84:	b29d      	uxth	r5, r3
 8003c86:	4321      	orrs	r1, r4
 8003c88:	8305      	strh	r5, [r0, #24]
 8003c8a:	8401      	strh	r1, [r0, #32]
 8003c8c:	bd30      	pop	{r4, r5, pc}

08003c8e <TI2_Config>:
 8003c8e:	b530      	push	{r4, r5, lr}
 8003c90:	8c04      	ldrh	r4, [r0, #32]
 8003c92:	f024 0410 	bic.w	r4, r4, #16
 8003c96:	0424      	lsls	r4, r4, #16
 8003c98:	0c24      	lsrs	r4, r4, #16
 8003c9a:	8404      	strh	r4, [r0, #32]
 8003c9c:	8b04      	ldrh	r4, [r0, #24]
 8003c9e:	8c05      	ldrh	r5, [r0, #32]
 8003ca0:	f424 7440 	bic.w	r4, r4, #768	; 0x300
 8003ca4:	b2ad      	uxth	r5, r5
 8003ca6:	0524      	lsls	r4, r4, #20
 8003ca8:	0d24      	lsrs	r4, r4, #20
 8003caa:	f025 0520 	bic.w	r5, r5, #32
 8003cae:	f045 0510 	orr.w	r5, r5, #16
 8003cb2:	ea44 2202 	orr.w	r2, r4, r2, lsl #8
 8003cb6:	ea42 3303 	orr.w	r3, r2, r3, lsl #12
 8003cba:	ea45 1101 	orr.w	r1, r5, r1, lsl #4
 8003cbe:	b29b      	uxth	r3, r3
 8003cc0:	b28d      	uxth	r5, r1
 8003cc2:	8303      	strh	r3, [r0, #24]
 8003cc4:	8405      	strh	r5, [r0, #32]
 8003cc6:	bd30      	pop	{r4, r5, pc}

08003cc8 <TIM_DeInit>:
 8003cc8:	b508      	push	{r3, lr}
 8003cca:	4b5a      	ldr	r3, [pc, #360]	; (8003e34 <TIM_DeInit+0x16c>)
 8003ccc:	4298      	cmp	r0, r3
 8003cce:	d107      	bne.n	8003ce0 <TIM_DeInit+0x18>
 8003cd0:	f44f 6000 	mov.w	r0, #2048	; 0x800
 8003cd4:	2101      	movs	r1, #1
 8003cd6:	f7ff fc2f 	bl	8003538 <RCC_APB2PeriphResetCmd>
 8003cda:	f44f 6000 	mov.w	r0, #2048	; 0x800
 8003cde:	e0a2      	b.n	8003e26 <TIM_DeInit+0x15e>
 8003ce0:	f1b0 4f80 	cmp.w	r0, #1073741824	; 0x40000000
 8003ce4:	d105      	bne.n	8003cf2 <TIM_DeInit+0x2a>
 8003ce6:	2001      	movs	r0, #1
 8003ce8:	4601      	mov	r1, r0
 8003cea:	f7ff fc31 	bl	8003550 <RCC_APB1PeriphResetCmd>
 8003cee:	2001      	movs	r0, #1
 8003cf0:	e007      	b.n	8003d02 <TIM_DeInit+0x3a>
 8003cf2:	4b51      	ldr	r3, [pc, #324]	; (8003e38 <TIM_DeInit+0x170>)
 8003cf4:	4298      	cmp	r0, r3
 8003cf6:	d109      	bne.n	8003d0c <TIM_DeInit+0x44>
 8003cf8:	2002      	movs	r0, #2
 8003cfa:	2101      	movs	r1, #1
 8003cfc:	f7ff fc28 	bl	8003550 <RCC_APB1PeriphResetCmd>
 8003d00:	2002      	movs	r0, #2
 8003d02:	2100      	movs	r1, #0
 8003d04:	e8bd 4008 	ldmia.w	sp!, {r3, lr}
 8003d08:	f7ff bc22 	b.w	8003550 <RCC_APB1PeriphResetCmd>
 8003d0c:	4b4b      	ldr	r3, [pc, #300]	; (8003e3c <TIM_DeInit+0x174>)
 8003d0e:	4298      	cmp	r0, r3
 8003d10:	d105      	bne.n	8003d1e <TIM_DeInit+0x56>
 8003d12:	2004      	movs	r0, #4
 8003d14:	2101      	movs	r1, #1
 8003d16:	f7ff fc1b 	bl	8003550 <RCC_APB1PeriphResetCmd>
 8003d1a:	2004      	movs	r0, #4
 8003d1c:	e7f1      	b.n	8003d02 <TIM_DeInit+0x3a>
 8003d1e:	4b48      	ldr	r3, [pc, #288]	; (8003e40 <TIM_DeInit+0x178>)
 8003d20:	4298      	cmp	r0, r3
 8003d22:	d105      	bne.n	8003d30 <TIM_DeInit+0x68>
 8003d24:	2008      	movs	r0, #8
 8003d26:	2101      	movs	r1, #1
 8003d28:	f7ff fc12 	bl	8003550 <RCC_APB1PeriphResetCmd>
 8003d2c:	2008      	movs	r0, #8
 8003d2e:	e7e8      	b.n	8003d02 <TIM_DeInit+0x3a>
 8003d30:	4b44      	ldr	r3, [pc, #272]	; (8003e44 <TIM_DeInit+0x17c>)
 8003d32:	4298      	cmp	r0, r3
 8003d34:	d105      	bne.n	8003d42 <TIM_DeInit+0x7a>
 8003d36:	2010      	movs	r0, #16
 8003d38:	2101      	movs	r1, #1
 8003d3a:	f7ff fc09 	bl	8003550 <RCC_APB1PeriphResetCmd>
 8003d3e:	2010      	movs	r0, #16
 8003d40:	e7df      	b.n	8003d02 <TIM_DeInit+0x3a>
 8003d42:	4b41      	ldr	r3, [pc, #260]	; (8003e48 <TIM_DeInit+0x180>)
 8003d44:	4298      	cmp	r0, r3
 8003d46:	d105      	bne.n	8003d54 <TIM_DeInit+0x8c>
 8003d48:	2020      	movs	r0, #32
 8003d4a:	2101      	movs	r1, #1
 8003d4c:	f7ff fc00 	bl	8003550 <RCC_APB1PeriphResetCmd>
 8003d50:	2020      	movs	r0, #32
 8003d52:	e7d6      	b.n	8003d02 <TIM_DeInit+0x3a>
 8003d54:	4b3d      	ldr	r3, [pc, #244]	; (8003e4c <TIM_DeInit+0x184>)
 8003d56:	4298      	cmp	r0, r3
 8003d58:	d107      	bne.n	8003d6a <TIM_DeInit+0xa2>
 8003d5a:	f44f 5000 	mov.w	r0, #8192	; 0x2000
 8003d5e:	2101      	movs	r1, #1
 8003d60:	f7ff fbea 	bl	8003538 <RCC_APB2PeriphResetCmd>
 8003d64:	f44f 5000 	mov.w	r0, #8192	; 0x2000
 8003d68:	e05d      	b.n	8003e26 <TIM_DeInit+0x15e>
 8003d6a:	4b39      	ldr	r3, [pc, #228]	; (8003e50 <TIM_DeInit+0x188>)
 8003d6c:	4298      	cmp	r0, r3
 8003d6e:	d107      	bne.n	8003d80 <TIM_DeInit+0xb8>
 8003d70:	f44f 2000 	mov.w	r0, #524288	; 0x80000
 8003d74:	2101      	movs	r1, #1
 8003d76:	f7ff fbdf 	bl	8003538 <RCC_APB2PeriphResetCmd>
 8003d7a:	f44f 2000 	mov.w	r0, #524288	; 0x80000
 8003d7e:	e052      	b.n	8003e26 <TIM_DeInit+0x15e>
 8003d80:	4b34      	ldr	r3, [pc, #208]	; (8003e54 <TIM_DeInit+0x18c>)
 8003d82:	4298      	cmp	r0, r3
 8003d84:	d107      	bne.n	8003d96 <TIM_DeInit+0xce>
 8003d86:	f44f 1080 	mov.w	r0, #1048576	; 0x100000
 8003d8a:	2101      	movs	r1, #1
 8003d8c:	f7ff fbd4 	bl	8003538 <RCC_APB2PeriphResetCmd>
 8003d90:	f44f 1080 	mov.w	r0, #1048576	; 0x100000
 8003d94:	e047      	b.n	8003e26 <TIM_DeInit+0x15e>
 8003d96:	4b30      	ldr	r3, [pc, #192]	; (8003e58 <TIM_DeInit+0x190>)
 8003d98:	4298      	cmp	r0, r3
 8003d9a:	d107      	bne.n	8003dac <TIM_DeInit+0xe4>
 8003d9c:	f44f 1000 	mov.w	r0, #2097152	; 0x200000
 8003da0:	2101      	movs	r1, #1
 8003da2:	f7ff fbc9 	bl	8003538 <RCC_APB2PeriphResetCmd>
 8003da6:	f44f 1000 	mov.w	r0, #2097152	; 0x200000
 8003daa:	e03c      	b.n	8003e26 <TIM_DeInit+0x15e>
 8003dac:	4b2b      	ldr	r3, [pc, #172]	; (8003e5c <TIM_DeInit+0x194>)
 8003dae:	4298      	cmp	r0, r3
 8003db0:	d105      	bne.n	8003dbe <TIM_DeInit+0xf6>
 8003db2:	2040      	movs	r0, #64	; 0x40
 8003db4:	2101      	movs	r1, #1
 8003db6:	f7ff fbcb 	bl	8003550 <RCC_APB1PeriphResetCmd>
 8003dba:	2040      	movs	r0, #64	; 0x40
 8003dbc:	e7a1      	b.n	8003d02 <TIM_DeInit+0x3a>
 8003dbe:	4b28      	ldr	r3, [pc, #160]	; (8003e60 <TIM_DeInit+0x198>)
 8003dc0:	4298      	cmp	r0, r3
 8003dc2:	d105      	bne.n	8003dd0 <TIM_DeInit+0x108>
 8003dc4:	2080      	movs	r0, #128	; 0x80
 8003dc6:	2101      	movs	r1, #1
 8003dc8:	f7ff fbc2 	bl	8003550 <RCC_APB1PeriphResetCmd>
 8003dcc:	2080      	movs	r0, #128	; 0x80
 8003dce:	e798      	b.n	8003d02 <TIM_DeInit+0x3a>
 8003dd0:	4b24      	ldr	r3, [pc, #144]	; (8003e64 <TIM_DeInit+0x19c>)
 8003dd2:	4298      	cmp	r0, r3
 8003dd4:	d107      	bne.n	8003de6 <TIM_DeInit+0x11e>
 8003dd6:	f44f 7080 	mov.w	r0, #256	; 0x100
 8003dda:	2101      	movs	r1, #1
 8003ddc:	f7ff fbb8 	bl	8003550 <RCC_APB1PeriphResetCmd>
 8003de0:	f44f 7080 	mov.w	r0, #256	; 0x100
 8003de4:	e78d      	b.n	8003d02 <TIM_DeInit+0x3a>
 8003de6:	4b20      	ldr	r3, [pc, #128]	; (8003e68 <TIM_DeInit+0x1a0>)
 8003de8:	4298      	cmp	r0, r3
 8003dea:	d107      	bne.n	8003dfc <TIM_DeInit+0x134>
 8003dec:	f44f 3080 	mov.w	r0, #65536	; 0x10000
 8003df0:	2101      	movs	r1, #1
 8003df2:	f7ff fba1 	bl	8003538 <RCC_APB2PeriphResetCmd>
 8003df6:	f44f 3080 	mov.w	r0, #65536	; 0x10000
 8003dfa:	e014      	b.n	8003e26 <TIM_DeInit+0x15e>
 8003dfc:	4b1b      	ldr	r3, [pc, #108]	; (8003e6c <TIM_DeInit+0x1a4>)
 8003dfe:	4298      	cmp	r0, r3
 8003e00:	d107      	bne.n	8003e12 <TIM_DeInit+0x14a>
 8003e02:	f44f 3000 	mov.w	r0, #131072	; 0x20000
 8003e06:	2101      	movs	r1, #1
 8003e08:	f7ff fb96 	bl	8003538 <RCC_APB2PeriphResetCmd>
 8003e0c:	f44f 3000 	mov.w	r0, #131072	; 0x20000
 8003e10:	e009      	b.n	8003e26 <TIM_DeInit+0x15e>
 8003e12:	4b17      	ldr	r3, [pc, #92]	; (8003e70 <TIM_DeInit+0x1a8>)
 8003e14:	4298      	cmp	r0, r3
 8003e16:	d10b      	bne.n	8003e30 <TIM_DeInit+0x168>
 8003e18:	f44f 2080 	mov.w	r0, #262144	; 0x40000
 8003e1c:	2101      	movs	r1, #1
 8003e1e:	f7ff fb8b 	bl	8003538 <RCC_APB2PeriphResetCmd>
 8003e22:	f44f 2080 	mov.w	r0, #262144	; 0x40000
 8003e26:	2100      	movs	r1, #0
 8003e28:	e8bd 4008 	ldmia.w	sp!, {r3, lr}
 8003e2c:	f7ff bb84 	b.w	8003538 <RCC_APB2PeriphResetCmd>
 8003e30:	bd08      	pop	{r3, pc}
 8003e32:	bf00      	nop
 8003e34:	40012c00 	.word	0x40012c00
 8003e38:	40000400 	.word	0x40000400
 8003e3c:	40000800 	.word	0x40000800
 8003e40:	40000c00 	.word	0x40000c00
 8003e44:	40001000 	.word	0x40001000
 8003e48:	40001400 	.word	0x40001400
 8003e4c:	40013400 	.word	0x40013400
 8003e50:	40014c00 	.word	0x40014c00
 8003e54:	40015000 	.word	0x40015000
 8003e58:	40015400 	.word	0x40015400
 8003e5c:	40001800 	.word	0x40001800
 8003e60:	40001c00 	.word	0x40001c00
 8003e64:	40002000 	.word	0x40002000
 8003e68:	40014000 	.word	0x40014000
 8003e6c:	40014400 	.word	0x40014400
 8003e70:	40014800 	.word	0x40014800

08003e74 <TIM_TimeBaseInit>:
 8003e74:	4a22      	ldr	r2, [pc, #136]	; (8003f00 <TIM_TimeBaseInit+0x8c>)
 8003e76:	8803      	ldrh	r3, [r0, #0]
 8003e78:	4290      	cmp	r0, r2
 8003e7a:	b29b      	uxth	r3, r3
 8003e7c:	d012      	beq.n	8003ea4 <TIM_TimeBaseInit+0x30>
 8003e7e:	f502 6200 	add.w	r2, r2, #2048	; 0x800
 8003e82:	4290      	cmp	r0, r2
 8003e84:	d00e      	beq.n	8003ea4 <TIM_TimeBaseInit+0x30>
 8003e86:	f1b0 4f80 	cmp.w	r0, #1073741824	; 0x40000000
 8003e8a:	d00b      	beq.n	8003ea4 <TIM_TimeBaseInit+0x30>
 8003e8c:	f5a2 3298 	sub.w	r2, r2, #77824	; 0x13000
 8003e90:	4290      	cmp	r0, r2
 8003e92:	d007      	beq.n	8003ea4 <TIM_TimeBaseInit+0x30>
 8003e94:	f502 6280 	add.w	r2, r2, #1024	; 0x400
 8003e98:	4290      	cmp	r0, r2
 8003e9a:	d003      	beq.n	8003ea4 <TIM_TimeBaseInit+0x30>
 8003e9c:	f502 6280 	add.w	r2, r2, #1024	; 0x400
 8003ea0:	4290      	cmp	r0, r2
 8003ea2:	d103      	bne.n	8003eac <TIM_TimeBaseInit+0x38>
 8003ea4:	884a      	ldrh	r2, [r1, #2]
 8003ea6:	f023 0370 	bic.w	r3, r3, #112	; 0x70
 8003eaa:	4313      	orrs	r3, r2
 8003eac:	4a15      	ldr	r2, [pc, #84]	; (8003f04 <TIM_TimeBaseInit+0x90>)
 8003eae:	4290      	cmp	r0, r2
 8003eb0:	d008      	beq.n	8003ec4 <TIM_TimeBaseInit+0x50>
 8003eb2:	f502 6280 	add.w	r2, r2, #1024	; 0x400
 8003eb6:	4290      	cmp	r0, r2
 8003eb8:	d004      	beq.n	8003ec4 <TIM_TimeBaseInit+0x50>
 8003eba:	f423 7340 	bic.w	r3, r3, #768	; 0x300
 8003ebe:	88ca      	ldrh	r2, [r1, #6]
 8003ec0:	b29b      	uxth	r3, r3
 8003ec2:	4313      	orrs	r3, r2
 8003ec4:	8003      	strh	r3, [r0, #0]
 8003ec6:	888b      	ldrh	r3, [r1, #4]
 8003ec8:	8583      	strh	r3, [r0, #44]	; 0x2c
 8003eca:	880b      	ldrh	r3, [r1, #0]
 8003ecc:	8503      	strh	r3, [r0, #40]	; 0x28
 8003ece:	4b0c      	ldr	r3, [pc, #48]	; (8003f00 <TIM_TimeBaseInit+0x8c>)
 8003ed0:	4298      	cmp	r0, r3
 8003ed2:	d00f      	beq.n	8003ef4 <TIM_TimeBaseInit+0x80>
 8003ed4:	f503 6300 	add.w	r3, r3, #2048	; 0x800
 8003ed8:	4298      	cmp	r0, r3
 8003eda:	d00b      	beq.n	8003ef4 <TIM_TimeBaseInit+0x80>
 8003edc:	f503 6340 	add.w	r3, r3, #3072	; 0xc00
 8003ee0:	4298      	cmp	r0, r3
 8003ee2:	d007      	beq.n	8003ef4 <TIM_TimeBaseInit+0x80>
 8003ee4:	f503 6380 	add.w	r3, r3, #1024	; 0x400
 8003ee8:	4298      	cmp	r0, r3
 8003eea:	d003      	beq.n	8003ef4 <TIM_TimeBaseInit+0x80>
 8003eec:	f503 6380 	add.w	r3, r3, #1024	; 0x400
 8003ef0:	4298      	cmp	r0, r3
 8003ef2:	d101      	bne.n	8003ef8 <TIM_TimeBaseInit+0x84>
 8003ef4:	7a0b      	ldrb	r3, [r1, #8]
 8003ef6:	8603      	strh	r3, [r0, #48]	; 0x30
 8003ef8:	2301      	movs	r3, #1
 8003efa:	8283      	strh	r3, [r0, #20]
 8003efc:	4770      	bx	lr
 8003efe:	bf00      	nop
 8003f00:	40012c00 	.word	0x40012c00
 8003f04:	40001000 	.word	0x40001000

08003f08 <TIM_OC1Init>:
 8003f08:	8c03      	ldrh	r3, [r0, #32]
 8003f0a:	b570      	push	{r4, r5, r6, lr}
 8003f0c:	f023 0301 	bic.w	r3, r3, #1
 8003f10:	041b      	lsls	r3, r3, #16
 8003f12:	0c1b      	lsrs	r3, r3, #16
 8003f14:	8403      	strh	r3, [r0, #32]
 8003f16:	8c03      	ldrh	r3, [r0, #32]
 8003f18:	8884      	ldrh	r4, [r0, #4]
 8003f1a:	8b02      	ldrh	r2, [r0, #24]
 8003f1c:	880d      	ldrh	r5, [r1, #0]
 8003f1e:	f022 0273 	bic.w	r2, r2, #115	; 0x73
 8003f22:	0412      	lsls	r2, r2, #16
 8003f24:	0c12      	lsrs	r2, r2, #16
 8003f26:	432a      	orrs	r2, r5
 8003f28:	884e      	ldrh	r6, [r1, #2]
 8003f2a:	890d      	ldrh	r5, [r1, #8]
 8003f2c:	f023 0302 	bic.w	r3, r3, #2
 8003f30:	041b      	lsls	r3, r3, #16
 8003f32:	4335      	orrs	r5, r6
 8003f34:	b2ad      	uxth	r5, r5
 8003f36:	0c1b      	lsrs	r3, r3, #16
 8003f38:	432b      	orrs	r3, r5
 8003f3a:	4d14      	ldr	r5, [pc, #80]	; (8003f8c <TIM_OC1Init+0x84>)
 8003f3c:	b2a4      	uxth	r4, r4
 8003f3e:	42a8      	cmp	r0, r5
 8003f40:	d00f      	beq.n	8003f62 <TIM_OC1Init+0x5a>
 8003f42:	f505 6500 	add.w	r5, r5, #2048	; 0x800
 8003f46:	42a8      	cmp	r0, r5
 8003f48:	d00b      	beq.n	8003f62 <TIM_OC1Init+0x5a>
 8003f4a:	f505 6540 	add.w	r5, r5, #3072	; 0xc00
 8003f4e:	42a8      	cmp	r0, r5
 8003f50:	d007      	beq.n	8003f62 <TIM_OC1Init+0x5a>
 8003f52:	f505 6580 	add.w	r5, r5, #1024	; 0x400
 8003f56:	42a8      	cmp	r0, r5
 8003f58:	d003      	beq.n	8003f62 <TIM_OC1Init+0x5a>
 8003f5a:	f505 6580 	add.w	r5, r5, #1024	; 0x400
 8003f5e:	42a8      	cmp	r0, r5
 8003f60:	d10e      	bne.n	8003f80 <TIM_OC1Init+0x78>
 8003f62:	894d      	ldrh	r5, [r1, #10]
 8003f64:	f023 0308 	bic.w	r3, r3, #8
 8003f68:	432b      	orrs	r3, r5
 8003f6a:	888d      	ldrh	r5, [r1, #4]
 8003f6c:	f023 0304 	bic.w	r3, r3, #4
 8003f70:	432b      	orrs	r3, r5
 8003f72:	89ce      	ldrh	r6, [r1, #14]
 8003f74:	898d      	ldrh	r5, [r1, #12]
 8003f76:	f424 7440 	bic.w	r4, r4, #768	; 0x300
 8003f7a:	4335      	orrs	r5, r6
 8003f7c:	b2ad      	uxth	r5, r5
 8003f7e:	432c      	orrs	r4, r5
 8003f80:	8084      	strh	r4, [r0, #4]
 8003f82:	8302      	strh	r2, [r0, #24]
 8003f84:	88ca      	ldrh	r2, [r1, #6]
 8003f86:	8682      	strh	r2, [r0, #52]	; 0x34
 8003f88:	8403      	strh	r3, [r0, #32]
 8003f8a:	bd70      	pop	{r4, r5, r6, pc}
 8003f8c:	40012c00 	.word	0x40012c00

08003f90 <TIM_OC2Init>:
 8003f90:	8c03      	ldrh	r3, [r0, #32]
 8003f92:	b530      	push	{r4, r5, lr}
 8003f94:	f023 0310 	bic.w	r3, r3, #16
 8003f98:	041b      	lsls	r3, r3, #16
 8003f9a:	0c1b      	lsrs	r3, r3, #16
 8003f9c:	8403      	strh	r3, [r0, #32]
 8003f9e:	8c03      	ldrh	r3, [r0, #32]
 8003fa0:	8882      	ldrh	r2, [r0, #4]
 8003fa2:	8b04      	ldrh	r4, [r0, #24]
 8003fa4:	880d      	ldrh	r5, [r1, #0]
 8003fa6:	f424 44e6 	bic.w	r4, r4, #29440	; 0x7300
 8003faa:	0424      	lsls	r4, r4, #16
 8003fac:	0c24      	lsrs	r4, r4, #16
 8003fae:	f023 0320 	bic.w	r3, r3, #32
 8003fb2:	ea44 2405 	orr.w	r4, r4, r5, lsl #8
 8003fb6:	041b      	lsls	r3, r3, #16
 8003fb8:	890d      	ldrh	r5, [r1, #8]
 8003fba:	0c1b      	lsrs	r3, r3, #16
 8003fbc:	ea43 1305 	orr.w	r3, r3, r5, lsl #4
 8003fc0:	884d      	ldrh	r5, [r1, #2]
 8003fc2:	b292      	uxth	r2, r2
 8003fc4:	ea43 1305 	orr.w	r3, r3, r5, lsl #4
 8003fc8:	4d12      	ldr	r5, [pc, #72]	; (8004014 <TIM_OC2Init+0x84>)
 8003fca:	b2a4      	uxth	r4, r4
 8003fcc:	42a8      	cmp	r0, r5
 8003fce:	b29b      	uxth	r3, r3
 8003fd0:	d003      	beq.n	8003fda <TIM_OC2Init+0x4a>
 8003fd2:	f505 6500 	add.w	r5, r5, #2048	; 0x800
 8003fd6:	42a8      	cmp	r0, r5
 8003fd8:	d115      	bne.n	8004006 <TIM_OC2Init+0x76>
 8003fda:	894d      	ldrh	r5, [r1, #10]
 8003fdc:	f023 0380 	bic.w	r3, r3, #128	; 0x80
 8003fe0:	b29b      	uxth	r3, r3
 8003fe2:	ea43 1305 	orr.w	r3, r3, r5, lsl #4
 8003fe6:	f64f 75bf 	movw	r5, #65471	; 0xffbf
 8003fea:	401d      	ands	r5, r3
 8003fec:	888b      	ldrh	r3, [r1, #4]
 8003fee:	f422 6240 	bic.w	r2, r2, #3072	; 0xc00
 8003ff2:	ea45 1303 	orr.w	r3, r5, r3, lsl #4
 8003ff6:	898d      	ldrh	r5, [r1, #12]
 8003ff8:	b29b      	uxth	r3, r3
 8003ffa:	ea42 0285 	orr.w	r2, r2, r5, lsl #2
 8003ffe:	89cd      	ldrh	r5, [r1, #14]
 8004000:	ea42 0285 	orr.w	r2, r2, r5, lsl #2
 8004004:	b292      	uxth	r2, r2
 8004006:	8082      	strh	r2, [r0, #4]
 8004008:	88ca      	ldrh	r2, [r1, #6]
 800400a:	8304      	strh	r4, [r0, #24]
 800400c:	8702      	strh	r2, [r0, #56]	; 0x38
 800400e:	8403      	strh	r3, [r0, #32]
 8004010:	bd30      	pop	{r4, r5, pc}
 8004012:	bf00      	nop
 8004014:	40012c00 	.word	0x40012c00

08004018 <TIM_OC3Init>:
 8004018:	8c03      	ldrh	r3, [r0, #32]
 800401a:	b530      	push	{r4, r5, lr}
 800401c:	f423 7380 	bic.w	r3, r3, #256	; 0x100
 8004020:	041b      	lsls	r3, r3, #16
 8004022:	0c1b      	lsrs	r3, r3, #16
 8004024:	8403      	strh	r3, [r0, #32]
 8004026:	8c03      	ldrh	r3, [r0, #32]
 8004028:	8882      	ldrh	r2, [r0, #4]
 800402a:	8b84      	ldrh	r4, [r0, #28]
 800402c:	880d      	ldrh	r5, [r1, #0]
 800402e:	f024 0473 	bic.w	r4, r4, #115	; 0x73
 8004032:	0424      	lsls	r4, r4, #16
 8004034:	0c24      	lsrs	r4, r4, #16
 8004036:	f423 7300 	bic.w	r3, r3, #512	; 0x200
 800403a:	432c      	orrs	r4, r5
 800403c:	041b      	lsls	r3, r3, #16
 800403e:	890d      	ldrh	r5, [r1, #8]
 8004040:	0c1b      	lsrs	r3, r3, #16
 8004042:	ea43 2305 	orr.w	r3, r3, r5, lsl #8
 8004046:	884d      	ldrh	r5, [r1, #2]
 8004048:	b292      	uxth	r2, r2
 800404a:	ea43 2305 	orr.w	r3, r3, r5, lsl #8
 800404e:	4d12      	ldr	r5, [pc, #72]	; (8004098 <TIM_OC3Init+0x80>)
 8004050:	b29b      	uxth	r3, r3
 8004052:	42a8      	cmp	r0, r5
 8004054:	d003      	beq.n	800405e <TIM_OC3Init+0x46>
 8004056:	f505 6500 	add.w	r5, r5, #2048	; 0x800
 800405a:	42a8      	cmp	r0, r5
 800405c:	d115      	bne.n	800408a <TIM_OC3Init+0x72>
 800405e:	894d      	ldrh	r5, [r1, #10]
 8004060:	f423 6300 	bic.w	r3, r3, #2048	; 0x800
 8004064:	b29b      	uxth	r3, r3
 8004066:	ea43 2305 	orr.w	r3, r3, r5, lsl #8
 800406a:	f64f 35ff 	movw	r5, #64511	; 0xfbff
 800406e:	401d      	ands	r5, r3
 8004070:	888b      	ldrh	r3, [r1, #4]
 8004072:	f422 5240 	bic.w	r2, r2, #12288	; 0x3000
 8004076:	ea45 2303 	orr.w	r3, r5, r3, lsl #8
 800407a:	898d      	ldrh	r5, [r1, #12]
 800407c:	b29b      	uxth	r3, r3
 800407e:	ea42 1205 	orr.w	r2, r2, r5, lsl #4
 8004082:	89cd      	ldrh	r5, [r1, #14]
 8004084:	ea42 1205 	orr.w	r2, r2, r5, lsl #4
 8004088:	b292      	uxth	r2, r2
 800408a:	8082      	strh	r2, [r0, #4]
 800408c:	88ca      	ldrh	r2, [r1, #6]
 800408e:	8384      	strh	r4, [r0, #28]
 8004090:	8782      	strh	r2, [r0, #60]	; 0x3c
 8004092:	8403      	strh	r3, [r0, #32]
 8004094:	bd30      	pop	{r4, r5, pc}
 8004096:	bf00      	nop
 8004098:	40012c00 	.word	0x40012c00

0800409c <TIM_OC4Init>:
 800409c:	8c03      	ldrh	r3, [r0, #32]
 800409e:	b530      	push	{r4, r5, lr}
 80040a0:	f423 5380 	bic.w	r3, r3, #4096	; 0x1000
 80040a4:	041b      	lsls	r3, r3, #16
 80040a6:	0c1b      	lsrs	r3, r3, #16
 80040a8:	8403      	strh	r3, [r0, #32]
 80040aa:	8c03      	ldrh	r3, [r0, #32]
 80040ac:	8884      	ldrh	r4, [r0, #4]
 80040ae:	8b82      	ldrh	r2, [r0, #28]
 80040b0:	880d      	ldrh	r5, [r1, #0]
 80040b2:	f422 42e6 	bic.w	r2, r2, #29440	; 0x7300
 80040b6:	0412      	lsls	r2, r2, #16
 80040b8:	0c12      	lsrs	r2, r2, #16
 80040ba:	f423 5300 	bic.w	r3, r3, #8192	; 0x2000
 80040be:	ea42 2205 	orr.w	r2, r2, r5, lsl #8
 80040c2:	041b      	lsls	r3, r3, #16
 80040c4:	890d      	ldrh	r5, [r1, #8]
 80040c6:	0c1b      	lsrs	r3, r3, #16
 80040c8:	ea43 3305 	orr.w	r3, r3, r5, lsl #12
 80040cc:	884d      	ldrh	r5, [r1, #2]
 80040ce:	b2a4      	uxth	r4, r4
 80040d0:	ea43 3305 	orr.w	r3, r3, r5, lsl #12
 80040d4:	4d0a      	ldr	r5, [pc, #40]	; (8004100 <TIM_OC4Init+0x64>)
 80040d6:	b292      	uxth	r2, r2
 80040d8:	42a8      	cmp	r0, r5
 80040da:	b29b      	uxth	r3, r3
 80040dc:	d003      	beq.n	80040e6 <TIM_OC4Init+0x4a>
 80040de:	f505 6500 	add.w	r5, r5, #2048	; 0x800
 80040e2:	42a8      	cmp	r0, r5
 80040e4:	d105      	bne.n	80040f2 <TIM_OC4Init+0x56>
 80040e6:	898d      	ldrh	r5, [r1, #12]
 80040e8:	f424 4480 	bic.w	r4, r4, #16384	; 0x4000
 80040ec:	ea44 1485 	orr.w	r4, r4, r5, lsl #6
 80040f0:	b2a4      	uxth	r4, r4
 80040f2:	8084      	strh	r4, [r0, #4]
 80040f4:	8382      	strh	r2, [r0, #28]
 80040f6:	88ca      	ldrh	r2, [r1, #6]
 80040f8:	f8a0 2040 	strh.w	r2, [r0, #64]	; 0x40
 80040fc:	8403      	strh	r3, [r0, #32]
 80040fe:	bd30      	pop	{r4, r5, pc}
 8004100:	40012c00 	.word	0x40012c00

08004104 <TIM_BDTRConfig>:
 8004104:	884a      	ldrh	r2, [r1, #2]
 8004106:	880b      	ldrh	r3, [r1, #0]
 8004108:	4313      	orrs	r3, r2
 800410a:	888a      	ldrh	r2, [r1, #4]
 800410c:	4313      	orrs	r3, r2
 800410e:	88ca      	ldrh	r2, [r1, #6]
 8004110:	4313      	orrs	r3, r2
 8004112:	890a      	ldrh	r2, [r1, #8]
 8004114:	4313      	orrs	r3, r2
 8004116:	894a      	ldrh	r2, [r1, #10]
 8004118:	4313      	orrs	r3, r2
 800411a:	898a      	ldrh	r2, [r1, #12]
 800411c:	4313      	orrs	r3, r2
 800411e:	b29b      	uxth	r3, r3
 8004120:	f8a0 3044 	strh.w	r3, [r0, #68]	; 0x44
 8004124:	4770      	bx	lr

08004126 <TIM_TimeBaseStructInit>:
 8004126:	f64f 73ff 	movw	r3, #65535	; 0xffff
 800412a:	8083      	strh	r3, [r0, #4]
 800412c:	2300      	movs	r3, #0
 800412e:	8003      	strh	r3, [r0, #0]
 8004130:	80c3      	strh	r3, [r0, #6]
 8004132:	8043      	strh	r3, [r0, #2]
 8004134:	7203      	strb	r3, [r0, #8]
 8004136:	4770      	bx	lr

08004138 <TIM_OCStructInit>:
 8004138:	2300      	movs	r3, #0
 800413a:	8003      	strh	r3, [r0, #0]
 800413c:	8043      	strh	r3, [r0, #2]
 800413e:	8083      	strh	r3, [r0, #4]
 8004140:	80c3      	strh	r3, [r0, #6]
 8004142:	8103      	strh	r3, [r0, #8]
 8004144:	8143      	strh	r3, [r0, #10]
 8004146:	8183      	strh	r3, [r0, #12]
 8004148:	81c3      	strh	r3, [r0, #14]
 800414a:	4770      	bx	lr

0800414c <TIM_ICStructInit>:
 800414c:	2300      	movs	r3, #0
 800414e:	2201      	movs	r2, #1
 8004150:	8003      	strh	r3, [r0, #0]
 8004152:	8043      	strh	r3, [r0, #2]
 8004154:	8082      	strh	r2, [r0, #4]
 8004156:	80c3      	strh	r3, [r0, #6]
 8004158:	8103      	strh	r3, [r0, #8]
 800415a:	4770      	bx	lr

0800415c <TIM_BDTRStructInit>:
 800415c:	2300      	movs	r3, #0
 800415e:	8003      	strh	r3, [r0, #0]
 8004160:	8043      	strh	r3, [r0, #2]
 8004162:	8083      	strh	r3, [r0, #4]
 8004164:	80c3      	strh	r3, [r0, #6]
 8004166:	8103      	strh	r3, [r0, #8]
 8004168:	8143      	strh	r3, [r0, #10]
 800416a:	8183      	strh	r3, [r0, #12]
 800416c:	4770      	bx	lr

0800416e <TIM_Cmd>:
 800416e:	8803      	ldrh	r3, [r0, #0]
 8004170:	b119      	cbz	r1, 800417a <TIM_Cmd+0xc>
 8004172:	b29b      	uxth	r3, r3
 8004174:	f043 0301 	orr.w	r3, r3, #1
 8004178:	e003      	b.n	8004182 <TIM_Cmd+0x14>
 800417a:	f023 0301 	bic.w	r3, r3, #1
 800417e:	041b      	lsls	r3, r3, #16
 8004180:	0c1b      	lsrs	r3, r3, #16
 8004182:	8003      	strh	r3, [r0, #0]
 8004184:	4770      	bx	lr

08004186 <TIM_CtrlPWMOutputs>:
 8004186:	f8b0 3044 	ldrh.w	r3, [r0, #68]	; 0x44
 800418a:	b129      	cbz	r1, 8004198 <TIM_CtrlPWMOutputs+0x12>
 800418c:	ea6f 4343 	mvn.w	r3, r3, lsl #17
 8004190:	ea6f 4353 	mvn.w	r3, r3, lsr #17
 8004194:	b29b      	uxth	r3, r3
 8004196:	e001      	b.n	800419c <TIM_CtrlPWMOutputs+0x16>
 8004198:	f3c3 030e 	ubfx	r3, r3, #0, #15
 800419c:	f8a0 3044 	strh.w	r3, [r0, #68]	; 0x44
 80041a0:	4770      	bx	lr

080041a2 <TIM_ITConfig>:
 80041a2:	8983      	ldrh	r3, [r0, #12]
 80041a4:	b29b      	uxth	r3, r3
 80041a6:	b10a      	cbz	r2, 80041ac <TIM_ITConfig+0xa>
 80041a8:	4319      	orrs	r1, r3
 80041aa:	e001      	b.n	80041b0 <TIM_ITConfig+0xe>
 80041ac:	ea23 0101 	bic.w	r1, r3, r1
 80041b0:	8181      	strh	r1, [r0, #12]
 80041b2:	4770      	bx	lr

080041b4 <TIM_GenerateEvent>:
 80041b4:	8281      	strh	r1, [r0, #20]
 80041b6:	4770      	bx	lr

080041b8 <TIM_DMAConfig>:
 80041b8:	430a      	orrs	r2, r1
 80041ba:	f8a0 2048 	strh.w	r2, [r0, #72]	; 0x48
 80041be:	4770      	bx	lr

080041c0 <TIM_DMACmd>:
 80041c0:	8983      	ldrh	r3, [r0, #12]
 80041c2:	b29b      	uxth	r3, r3
 80041c4:	b10a      	cbz	r2, 80041ca <TIM_DMACmd+0xa>
 80041c6:	4319      	orrs	r1, r3
 80041c8:	e001      	b.n	80041ce <TIM_DMACmd+0xe>
 80041ca:	ea23 0101 	bic.w	r1, r3, r1
 80041ce:	8181      	strh	r1, [r0, #12]
 80041d0:	4770      	bx	lr

080041d2 <TIM_InternalClockConfig>:
 80041d2:	8903      	ldrh	r3, [r0, #8]
 80041d4:	f023 0307 	bic.w	r3, r3, #7
 80041d8:	041b      	lsls	r3, r3, #16
 80041da:	0c1b      	lsrs	r3, r3, #16
 80041dc:	8103      	strh	r3, [r0, #8]
 80041de:	4770      	bx	lr

080041e0 <TIM_ITRxExternalClockConfig>:
 80041e0:	8903      	ldrh	r3, [r0, #8]
 80041e2:	f023 0370 	bic.w	r3, r3, #112	; 0x70
 80041e6:	041b      	lsls	r3, r3, #16
 80041e8:	0c1b      	lsrs	r3, r3, #16
 80041ea:	4319      	orrs	r1, r3
 80041ec:	8101      	strh	r1, [r0, #8]
 80041ee:	8903      	ldrh	r3, [r0, #8]
 80041f0:	b29b      	uxth	r3, r3
 80041f2:	f043 0307 	orr.w	r3, r3, #7
 80041f6:	8103      	strh	r3, [r0, #8]
 80041f8:	4770      	bx	lr

080041fa <TIM_TIxExternalClockConfig>:
 80041fa:	b538      	push	{r3, r4, r5, lr}
 80041fc:	460d      	mov	r5, r1
 80041fe:	2d60      	cmp	r5, #96	; 0x60
 8004200:	4611      	mov	r1, r2
 8004202:	4604      	mov	r4, r0
 8004204:	f04f 0201 	mov.w	r2, #1
 8004208:	d102      	bne.n	8004210 <TIM_TIxExternalClockConfig+0x16>
 800420a:	f7ff fd40 	bl	8003c8e <TI2_Config>
 800420e:	e001      	b.n	8004214 <TIM_TIxExternalClockConfig+0x1a>
 8004210:	f7ff fd24 	bl	8003c5c <TI1_Config>
 8004214:	8923      	ldrh	r3, [r4, #8]
 8004216:	f023 0370 	bic.w	r3, r3, #112	; 0x70
 800421a:	041b      	lsls	r3, r3, #16
 800421c:	0c1b      	lsrs	r3, r3, #16
 800421e:	432b      	orrs	r3, r5
 8004220:	8123      	strh	r3, [r4, #8]
 8004222:	8923      	ldrh	r3, [r4, #8]
 8004224:	b29b      	uxth	r3, r3
 8004226:	f043 0307 	orr.w	r3, r3, #7
 800422a:	8123      	strh	r3, [r4, #8]
 800422c:	bd38      	pop	{r3, r4, r5, pc}

0800422e <TIM_ETRConfig>:
 800422e:	b510      	push	{r4, lr}
 8004230:	8904      	ldrh	r4, [r0, #8]
 8004232:	b2e4      	uxtb	r4, r4
 8004234:	4321      	orrs	r1, r4
 8004236:	430a      	orrs	r2, r1
 8004238:	ea42 2303 	orr.w	r3, r2, r3, lsl #8
 800423c:	b29c      	uxth	r4, r3
 800423e:	8104      	strh	r4, [r0, #8]
 8004240:	bd10      	pop	{r4, pc}

08004242 <TIM_ETRClockMode2Config>:
 8004242:	b510      	push	{r4, lr}
 8004244:	4604      	mov	r4, r0
 8004246:	f7ff fff2 	bl	800422e <TIM_ETRConfig>
 800424a:	8923      	ldrh	r3, [r4, #8]
 800424c:	b29b      	uxth	r3, r3
 800424e:	f443 4380 	orr.w	r3, r3, #16384	; 0x4000
 8004252:	8123      	strh	r3, [r4, #8]
 8004254:	bd10      	pop	{r4, pc}

08004256 <TIM_ETRClockMode1Config>:
 8004256:	b510      	push	{r4, lr}
 8004258:	4604      	mov	r4, r0
 800425a:	f7ff ffe8 	bl	800422e <TIM_ETRConfig>
 800425e:	8923      	ldrh	r3, [r4, #8]
 8004260:	f023 0377 	bic.w	r3, r3, #119	; 0x77
 8004264:	041b      	lsls	r3, r3, #16
 8004266:	0c1b      	lsrs	r3, r3, #16
 8004268:	f043 0377 	orr.w	r3, r3, #119	; 0x77
 800426c:	8123      	strh	r3, [r4, #8]
 800426e:	bd10      	pop	{r4, pc}

08004270 <TIM_PrescalerConfig>:
 8004270:	8501      	strh	r1, [r0, #40]	; 0x28
 8004272:	8282      	strh	r2, [r0, #20]
 8004274:	4770      	bx	lr

08004276 <TIM_CounterModeConfig>:
 8004276:	8803      	ldrh	r3, [r0, #0]
 8004278:	f023 0370 	bic.w	r3, r3, #112	; 0x70
 800427c:	041b      	lsls	r3, r3, #16
 800427e:	0c1b      	lsrs	r3, r3, #16
 8004280:	4319      	orrs	r1, r3
 8004282:	8001      	strh	r1, [r0, #0]
 8004284:	4770      	bx	lr

08004286 <TIM_SelectInputTrigger>:
 8004286:	8903      	ldrh	r3, [r0, #8]
 8004288:	f023 0370 	bic.w	r3, r3, #112	; 0x70
 800428c:	041b      	lsls	r3, r3, #16
 800428e:	0c1b      	lsrs	r3, r3, #16
 8004290:	4319      	orrs	r1, r3
 8004292:	8101      	strh	r1, [r0, #8]
 8004294:	4770      	bx	lr

08004296 <TIM_EncoderInterfaceConfig>:
 8004296:	b570      	push	{r4, r5, r6, lr}
 8004298:	8905      	ldrh	r5, [r0, #8]
 800429a:	8b04      	ldrh	r4, [r0, #24]
 800429c:	8c06      	ldrh	r6, [r0, #32]
 800429e:	f424 7440 	bic.w	r4, r4, #768	; 0x300
 80042a2:	b2b6      	uxth	r6, r6
 80042a4:	f024 0403 	bic.w	r4, r4, #3
 80042a8:	f026 0622 	bic.w	r6, r6, #34	; 0x22
 80042ac:	f025 0507 	bic.w	r5, r5, #7
 80042b0:	0424      	lsls	r4, r4, #16
 80042b2:	4332      	orrs	r2, r6
 80042b4:	042d      	lsls	r5, r5, #16
 80042b6:	0c24      	lsrs	r4, r4, #16
 80042b8:	0c2d      	lsrs	r5, r5, #16
 80042ba:	f444 7480 	orr.w	r4, r4, #256	; 0x100
 80042be:	ea42 1303 	orr.w	r3, r2, r3, lsl #4
 80042c2:	4329      	orrs	r1, r5
 80042c4:	f044 0401 	orr.w	r4, r4, #1
 80042c8:	b29e      	uxth	r6, r3
 80042ca:	8101      	strh	r1, [r0, #8]
 80042cc:	8304      	strh	r4, [r0, #24]
 80042ce:	8406      	strh	r6, [r0, #32]
 80042d0:	bd70      	pop	{r4, r5, r6, pc}

080042d2 <TIM_ForcedOC1Config>:
 80042d2:	8b03      	ldrh	r3, [r0, #24]
 80042d4:	f023 0370 	bic.w	r3, r3, #112	; 0x70
 80042d8:	041b      	lsls	r3, r3, #16
 80042da:	0c1b      	lsrs	r3, r3, #16
 80042dc:	4319      	orrs	r1, r3
 80042de:	8301      	strh	r1, [r0, #24]
 80042e0:	4770      	bx	lr

080042e2 <TIM_ForcedOC2Config>:
 80042e2:	8b03      	ldrh	r3, [r0, #24]
 80042e4:	f423 43e0 	bic.w	r3, r3, #28672	; 0x7000
 80042e8:	041b      	lsls	r3, r3, #16
 80042ea:	0c1b      	lsrs	r3, r3, #16
 80042ec:	ea43 2101 	orr.w	r1, r3, r1, lsl #8
 80042f0:	b28b      	uxth	r3, r1
 80042f2:	8303      	strh	r3, [r0, #24]
 80042f4:	4770      	bx	lr

080042f6 <TIM_ForcedOC3Config>:
 80042f6:	8b83      	ldrh	r3, [r0, #28]
 80042f8:	f023 0370 	bic.w	r3, r3, #112	; 0x70
 80042fc:	041b      	lsls	r3, r3, #16
 80042fe:	0c1b      	lsrs	r3, r3, #16
 8004300:	4319      	orrs	r1, r3
 8004302:	8381      	strh	r1, [r0, #28]
 8004304:	4770      	bx	lr

08004306 <TIM_ForcedOC4Config>:
 8004306:	8b83      	ldrh	r3, [r0, #28]
 8004308:	f423 43e0 	bic.w	r3, r3, #28672	; 0x7000
 800430c:	041b      	lsls	r3, r3, #16
 800430e:	0c1b      	lsrs	r3, r3, #16
 8004310:	ea43 2101 	orr.w	r1, r3, r1, lsl #8
 8004314:	b28b      	uxth	r3, r1
 8004316:	8383      	strh	r3, [r0, #28]
 8004318:	4770      	bx	lr

0800431a <TIM_ARRPreloadConfig>:
 800431a:	8803      	ldrh	r3, [r0, #0]
 800431c:	b119      	cbz	r1, 8004326 <TIM_ARRPreloadConfig+0xc>
 800431e:	b29b      	uxth	r3, r3
 8004320:	f043 0380 	orr.w	r3, r3, #128	; 0x80
 8004324:	e003      	b.n	800432e <TIM_ARRPreloadConfig+0x14>
 8004326:	f023 0380 	bic.w	r3, r3, #128	; 0x80
 800432a:	041b      	lsls	r3, r3, #16
 800432c:	0c1b      	lsrs	r3, r3, #16
 800432e:	8003      	strh	r3, [r0, #0]
 8004330:	4770      	bx	lr

08004332 <TIM_SelectCOM>:
 8004332:	8883      	ldrh	r3, [r0, #4]
 8004334:	b119      	cbz	r1, 800433e <TIM_SelectCOM+0xc>
 8004336:	b29b      	uxth	r3, r3
 8004338:	f043 0304 	orr.w	r3, r3, #4
 800433c:	e003      	b.n	8004346 <TIM_SelectCOM+0x14>
 800433e:	f023 0304 	bic.w	r3, r3, #4
 8004342:	041b      	lsls	r3, r3, #16
 8004344:	0c1b      	lsrs	r3, r3, #16
 8004346:	8083      	strh	r3, [r0, #4]
 8004348:	4770      	bx	lr

0800434a <TIM_SelectCCDMA>:
 800434a:	8883      	ldrh	r3, [r0, #4]
 800434c:	b119      	cbz	r1, 8004356 <TIM_SelectCCDMA+0xc>
 800434e:	b29b      	uxth	r3, r3
 8004350:	f043 0308 	orr.w	r3, r3, #8
 8004354:	e003      	b.n	800435e <TIM_SelectCCDMA+0x14>
 8004356:	f023 0308 	bic.w	r3, r3, #8
 800435a:	041b      	lsls	r3, r3, #16
 800435c:	0c1b      	lsrs	r3, r3, #16
 800435e:	8083      	strh	r3, [r0, #4]
 8004360:	4770      	bx	lr

08004362 <TIM_CCPreloadControl>:
 8004362:	8883      	ldrh	r3, [r0, #4]
 8004364:	b119      	cbz	r1, 800436e <TIM_CCPreloadControl+0xc>
 8004366:	b29b      	uxth	r3, r3
 8004368:	f043 0301 	orr.w	r3, r3, #1
 800436c:	e003      	b.n	8004376 <TIM_CCPreloadControl+0x14>
 800436e:	f023 0301 	bic.w	r3, r3, #1
 8004372:	041b      	lsls	r3, r3, #16
 8004374:	0c1b      	lsrs	r3, r3, #16
 8004376:	8083      	strh	r3, [r0, #4]
 8004378:	4770      	bx	lr

0800437a <TIM_OC1PreloadConfig>:
 800437a:	8b03      	ldrh	r3, [r0, #24]
 800437c:	f023 0308 	bic.w	r3, r3, #8
 8004380:	041b      	lsls	r3, r3, #16
 8004382:	0c1b      	lsrs	r3, r3, #16
 8004384:	4319      	orrs	r1, r3
 8004386:	8301      	strh	r1, [r0, #24]
 8004388:	4770      	bx	lr

0800438a <TIM_OC2PreloadConfig>:
 800438a:	8b03      	ldrh	r3, [r0, #24]
 800438c:	f423 6300 	bic.w	r3, r3, #2048	; 0x800
 8004390:	041b      	lsls	r3, r3, #16
 8004392:	0c1b      	lsrs	r3, r3, #16
 8004394:	ea43 2101 	orr.w	r1, r3, r1, lsl #8
 8004398:	b28b      	uxth	r3, r1
 800439a:	8303      	strh	r3, [r0, #24]
 800439c:	4770      	bx	lr

0800439e <TIM_OC3PreloadConfig>:
 800439e:	8b83      	ldrh	r3, [r0, #28]
 80043a0:	f023 0308 	bic.w	r3, r3, #8
 80043a4:	041b      	lsls	r3, r3, #16
 80043a6:	0c1b      	lsrs	r3, r3, #16
 80043a8:	4319      	orrs	r1, r3
 80043aa:	8381      	strh	r1, [r0, #28]
 80043ac:	4770      	bx	lr

080043ae <TIM_OC4PreloadConfig>:
 80043ae:	8b83      	ldrh	r3, [r0, #28]
 80043b0:	f423 6300 	bic.w	r3, r3, #2048	; 0x800
 80043b4:	041b      	lsls	r3, r3, #16
 80043b6:	0c1b      	lsrs	r3, r3, #16
 80043b8:	ea43 2101 	orr.w	r1, r3, r1, lsl #8
 80043bc:	b28b      	uxth	r3, r1
 80043be:	8383      	strh	r3, [r0, #28]
 80043c0:	4770      	bx	lr

080043c2 <TIM_OC1FastConfig>:
 80043c2:	8b03      	ldrh	r3, [r0, #24]
 80043c4:	f023 0304 	bic.w	r3, r3, #4
 80043c8:	041b      	lsls	r3, r3, #16
 80043ca:	0c1b      	lsrs	r3, r3, #16
 80043cc:	4319      	orrs	r1, r3
 80043ce:	8301      	strh	r1, [r0, #24]
 80043d0:	4770      	bx	lr

080043d2 <TIM_OC2FastConfig>:
 80043d2:	8b03      	ldrh	r3, [r0, #24]
 80043d4:	f423 6380 	bic.w	r3, r3, #1024	; 0x400
 80043d8:	041b      	lsls	r3, r3, #16
 80043da:	0c1b      	lsrs	r3, r3, #16
 80043dc:	ea43 2101 	orr.w	r1, r3, r1, lsl #8
 80043e0:	b28b      	uxth	r3, r1
 80043e2:	8303      	strh	r3, [r0, #24]
 80043e4:	4770      	bx	lr

080043e6 <TIM_OC3FastConfig>:
 80043e6:	8b83      	ldrh	r3, [r0, #28]
 80043e8:	f023 0304 	bic.w	r3, r3, #4
 80043ec:	041b      	lsls	r3, r3, #16
 80043ee:	0c1b      	lsrs	r3, r3, #16
 80043f0:	4319      	orrs	r1, r3
 80043f2:	8381      	strh	r1, [r0, #28]
 80043f4:	4770      	bx	lr

080043f6 <TIM_OC4FastConfig>:
 80043f6:	8b83      	ldrh	r3, [r0, #28]
 80043f8:	f423 6380 	bic.w	r3, r3, #1024	; 0x400
 80043fc:	041b      	lsls	r3, r3, #16
 80043fe:	0c1b      	lsrs	r3, r3, #16
 8004400:	ea43 2101 	orr.w	r1, r3, r1, lsl #8
 8004404:	b28b      	uxth	r3, r1
 8004406:	8383      	strh	r3, [r0, #28]
 8004408:	4770      	bx	lr

0800440a <TIM_ClearOC1Ref>:
 800440a:	8b03      	ldrh	r3, [r0, #24]
 800440c:	f023 0380 	bic.w	r3, r3, #128	; 0x80
 8004410:	041b      	lsls	r3, r3, #16
 8004412:	0c1b      	lsrs	r3, r3, #16
 8004414:	4319      	orrs	r1, r3
 8004416:	8301      	strh	r1, [r0, #24]
 8004418:	4770      	bx	lr

0800441a <TIM_ClearOC2Ref>:
 800441a:	8b03      	ldrh	r3, [r0, #24]
 800441c:	f3c3 030e 	ubfx	r3, r3, #0, #15
 8004420:	ea43 2101 	orr.w	r1, r3, r1, lsl #8
 8004424:	b28b      	uxth	r3, r1
 8004426:	8303      	strh	r3, [r0, #24]
 8004428:	4770      	bx	lr

0800442a <TIM_ClearOC3Ref>:
 800442a:	8b83      	ldrh	r3, [r0, #28]
 800442c:	f023 0380 	bic.w	r3, r3, #128	; 0x80
 8004430:	041b      	lsls	r3, r3, #16
 8004432:	0c1b      	lsrs	r3, r3, #16
 8004434:	4319      	orrs	r1, r3
 8004436:	8381      	strh	r1, [r0, #28]
 8004438:	4770      	bx	lr

0800443a <TIM_ClearOC4Ref>:
 800443a:	8b83      	ldrh	r3, [r0, #28]
 800443c:	f3c3 030e 	ubfx	r3, r3, #0, #15
 8004440:	ea43 2101 	orr.w	r1, r3, r1, lsl #8
 8004444:	b28b      	uxth	r3, r1
 8004446:	8383      	strh	r3, [r0, #28]
 8004448:	4770      	bx	lr

0800444a <TIM_OC1PolarityConfig>:
 800444a:	8c03      	ldrh	r3, [r0, #32]
 800444c:	f023 0302 	bic.w	r3, r3, #2
 8004450:	041b      	lsls	r3, r3, #16
 8004452:	0c1b      	lsrs	r3, r3, #16
 8004454:	4319      	orrs	r1, r3
 8004456:	8401      	strh	r1, [r0, #32]
 8004458:	4770      	bx	lr

0800445a <TIM_OC1NPolarityConfig>:
 800445a:	8c03      	ldrh	r3, [r0, #32]
 800445c:	f023 0308 	bic.w	r3, r3, #8
 8004460:	041b      	lsls	r3, r3, #16
 8004462:	0c1b      	lsrs	r3, r3, #16
 8004464:	4319      	orrs	r1, r3
 8004466:	8401      	strh	r1, [r0, #32]
 8004468:	4770      	bx	lr

0800446a <TIM_OC2PolarityConfig>:
 800446a:	8c03      	ldrh	r3, [r0, #32]
 800446c:	f023 0320 	bic.w	r3, r3, #32
 8004470:	041b      	lsls	r3, r3, #16
 8004472:	0c1b      	lsrs	r3, r3, #16
 8004474:	ea43 1101 	orr.w	r1, r3, r1, lsl #4
 8004478:	b28b      	uxth	r3, r1
 800447a:	8403      	strh	r3, [r0, #32]
 800447c:	4770      	bx	lr

0800447e <TIM_OC2NPolarityConfig>:
 800447e:	8c03      	ldrh	r3, [r0, #32]
 8004480:	f023 0380 	bic.w	r3, r3, #128	; 0x80
 8004484:	041b      	lsls	r3, r3, #16
 8004486:	0c1b      	lsrs	r3, r3, #16
 8004488:	ea43 1101 	orr.w	r1, r3, r1, lsl #4
 800448c:	b28b      	uxth	r3, r1
 800448e:	8403      	strh	r3, [r0, #32]
 8004490:	4770      	bx	lr

08004492 <TIM_OC3PolarityConfig>:
 8004492:	8c03      	ldrh	r3, [r0, #32]
 8004494:	f423 7300 	bic.w	r3, r3, #512	; 0x200
 8004498:	041b      	lsls	r3, r3, #16
 800449a:	0c1b      	lsrs	r3, r3, #16
 800449c:	ea43 2101 	orr.w	r1, r3, r1, lsl #8
 80044a0:	b28b      	uxth	r3, r1
 80044a2:	8403      	strh	r3, [r0, #32]
 80044a4:	4770      	bx	lr

080044a6 <TIM_OC3NPolarityConfig>:
 80044a6:	8c03      	ldrh	r3, [r0, #32]
 80044a8:	f423 6300 	bic.w	r3, r3, #2048	; 0x800
 80044ac:	041b      	lsls	r3, r3, #16
 80044ae:	0c1b      	lsrs	r3, r3, #16
 80044b0:	ea43 2101 	orr.w	r1, r3, r1, lsl #8
 80044b4:	b28b      	uxth	r3, r1
 80044b6:	8403      	strh	r3, [r0, #32]
 80044b8:	4770      	bx	lr

080044ba <TIM_OC4PolarityConfig>:
 80044ba:	8c03      	ldrh	r3, [r0, #32]
 80044bc:	f423 5300 	bic.w	r3, r3, #8192	; 0x2000
 80044c0:	041b      	lsls	r3, r3, #16
 80044c2:	0c1b      	lsrs	r3, r3, #16
 80044c4:	ea43 3101 	orr.w	r1, r3, r1, lsl #12
 80044c8:	b28b      	uxth	r3, r1
 80044ca:	8403      	strh	r3, [r0, #32]
 80044cc:	4770      	bx	lr

080044ce <TIM_CCxCmd>:
 80044ce:	2301      	movs	r3, #1
 80044d0:	408b      	lsls	r3, r1
 80044d2:	408a      	lsls	r2, r1
 80044d4:	b510      	push	{r4, lr}
 80044d6:	8c04      	ldrh	r4, [r0, #32]
 80044d8:	b2a4      	uxth	r4, r4
 80044da:	ea24 0303 	bic.w	r3, r4, r3
 80044de:	8403      	strh	r3, [r0, #32]
 80044e0:	8c03      	ldrh	r3, [r0, #32]
 80044e2:	4313      	orrs	r3, r2
 80044e4:	b29b      	uxth	r3, r3
 80044e6:	8403      	strh	r3, [r0, #32]
 80044e8:	bd10      	pop	{r4, pc}

080044ea <TIM_CCxNCmd>:
 80044ea:	2304      	movs	r3, #4
 80044ec:	408b      	lsls	r3, r1
 80044ee:	408a      	lsls	r2, r1
 80044f0:	b510      	push	{r4, lr}
 80044f2:	8c04      	ldrh	r4, [r0, #32]
 80044f4:	b2a4      	uxth	r4, r4
 80044f6:	ea24 0303 	bic.w	r3, r4, r3
 80044fa:	8403      	strh	r3, [r0, #32]
 80044fc:	8c03      	ldrh	r3, [r0, #32]
 80044fe:	4313      	orrs	r3, r2
 8004500:	b29b      	uxth	r3, r3
 8004502:	8403      	strh	r3, [r0, #32]
 8004504:	bd10      	pop	{r4, pc}

08004506 <TIM_SelectOCxM>:
 8004506:	b530      	push	{r4, r5, lr}
 8004508:	2401      	movs	r4, #1
 800450a:	408c      	lsls	r4, r1
 800450c:	8c05      	ldrh	r5, [r0, #32]
 800450e:	f100 0318 	add.w	r3, r0, #24
 8004512:	b2ad      	uxth	r5, r5
 8004514:	ea25 0404 	bic.w	r4, r5, r4
 8004518:	8404      	strh	r4, [r0, #32]
 800451a:	b109      	cbz	r1, 8004520 <TIM_SelectOCxM+0x1a>
 800451c:	2908      	cmp	r1, #8
 800451e:	d106      	bne.n	800452e <TIM_SelectOCxM+0x28>
 8004520:	0849      	lsrs	r1, r1, #1
 8004522:	58c8      	ldr	r0, [r1, r3]
 8004524:	f020 0070 	bic.w	r0, r0, #112	; 0x70
 8004528:	50c8      	str	r0, [r1, r3]
 800452a:	58c8      	ldr	r0, [r1, r3]
 800452c:	e009      	b.n	8004542 <TIM_SelectOCxM+0x3c>
 800452e:	3904      	subs	r1, #4
 8004530:	f3c1 014e 	ubfx	r1, r1, #1, #15
 8004534:	58c8      	ldr	r0, [r1, r3]
 8004536:	0212      	lsls	r2, r2, #8
 8004538:	f420 40e0 	bic.w	r0, r0, #28672	; 0x7000
 800453c:	50c8      	str	r0, [r1, r3]
 800453e:	58c8      	ldr	r0, [r1, r3]
 8004540:	b292      	uxth	r2, r2
 8004542:	4302      	orrs	r2, r0
 8004544:	50ca      	str	r2, [r1, r3]
 8004546:	bd30      	pop	{r4, r5, pc}

08004548 <TIM_UpdateDisableConfig>:
 8004548:	8803      	ldrh	r3, [r0, #0]
 800454a:	b119      	cbz	r1, 8004554 <TIM_UpdateDisableConfig+0xc>
 800454c:	b29b      	uxth	r3, r3
 800454e:	f043 0302 	orr.w	r3, r3, #2
 8004552:	e003      	b.n	800455c <TIM_UpdateDisableConfig+0x14>
 8004554:	f023 0302 	bic.w	r3, r3, #2
 8004558:	041b      	lsls	r3, r3, #16
 800455a:	0c1b      	lsrs	r3, r3, #16
 800455c:	8003      	strh	r3, [r0, #0]
 800455e:	4770      	bx	lr

08004560 <TIM_UpdateRequestConfig>:
 8004560:	8803      	ldrh	r3, [r0, #0]
 8004562:	b119      	cbz	r1, 800456c <TIM_UpdateRequestConfig+0xc>
 8004564:	b29b      	uxth	r3, r3
 8004566:	f043 0304 	orr.w	r3, r3, #4
 800456a:	e003      	b.n	8004574 <TIM_UpdateRequestConfig+0x14>
 800456c:	f023 0304 	bic.w	r3, r3, #4
 8004570:	041b      	lsls	r3, r3, #16
 8004572:	0c1b      	lsrs	r3, r3, #16
 8004574:	8003      	strh	r3, [r0, #0]
 8004576:	4770      	bx	lr

08004578 <TIM_SelectHallSensor>:
 8004578:	8883      	ldrh	r3, [r0, #4]
 800457a:	b119      	cbz	r1, 8004584 <TIM_SelectHallSensor+0xc>
 800457c:	b29b      	uxth	r3, r3
 800457e:	f043 0380 	orr.w	r3, r3, #128	; 0x80
 8004582:	e003      	b.n	800458c <TIM_SelectHallSensor+0x14>
 8004584:	f023 0380 	bic.w	r3, r3, #128	; 0x80
 8004588:	041b      	lsls	r3, r3, #16
 800458a:	0c1b      	lsrs	r3, r3, #16
 800458c:	8083      	strh	r3, [r0, #4]
 800458e:	4770      	bx	lr

08004590 <TIM_SelectOnePulseMode>:
 8004590:	8803      	ldrh	r3, [r0, #0]
 8004592:	f023 0308 	bic.w	r3, r3, #8
 8004596:	041b      	lsls	r3, r3, #16
 8004598:	0c1b      	lsrs	r3, r3, #16
 800459a:	8003      	strh	r3, [r0, #0]
 800459c:	8803      	ldrh	r3, [r0, #0]
 800459e:	b29b      	uxth	r3, r3
 80045a0:	4319      	orrs	r1, r3
 80045a2:	8001      	strh	r1, [r0, #0]
 80045a4:	4770      	bx	lr

080045a6 <TIM_SelectOutputTrigger>:
 80045a6:	8883      	ldrh	r3, [r0, #4]
 80045a8:	f023 0370 	bic.w	r3, r3, #112	; 0x70
 80045ac:	041b      	lsls	r3, r3, #16
 80045ae:	0c1b      	lsrs	r3, r3, #16
 80045b0:	8083      	strh	r3, [r0, #4]
 80045b2:	8883      	ldrh	r3, [r0, #4]
 80045b4:	b29b      	uxth	r3, r3
 80045b6:	4319      	orrs	r1, r3
 80045b8:	8081      	strh	r1, [r0, #4]
 80045ba:	4770      	bx	lr

080045bc <TIM_SelectSlaveMode>:
 80045bc:	8903      	ldrh	r3, [r0, #8]
 80045be:	f023 0307 	bic.w	r3, r3, #7
 80045c2:	041b      	lsls	r3, r3, #16
 80045c4:	0c1b      	lsrs	r3, r3, #16
 80045c6:	8103      	strh	r3, [r0, #8]
 80045c8:	8903      	ldrh	r3, [r0, #8]
 80045ca:	b29b      	uxth	r3, r3
 80045cc:	4319      	orrs	r1, r3
 80045ce:	8101      	strh	r1, [r0, #8]
 80045d0:	4770      	bx	lr

080045d2 <TIM_SelectMasterSlaveMode>:
 80045d2:	8903      	ldrh	r3, [r0, #8]
 80045d4:	f023 0380 	bic.w	r3, r3, #128	; 0x80
 80045d8:	041b      	lsls	r3, r3, #16
 80045da:	0c1b      	lsrs	r3, r3, #16
 80045dc:	8103      	strh	r3, [r0, #8]
 80045de:	8903      	ldrh	r3, [r0, #8]
 80045e0:	b29b      	uxth	r3, r3
 80045e2:	4319      	orrs	r1, r3
 80045e4:	8101      	strh	r1, [r0, #8]
 80045e6:	4770      	bx	lr

080045e8 <TIM_SetCounter>:
 80045e8:	8481      	strh	r1, [r0, #36]	; 0x24
 80045ea:	4770      	bx	lr

080045ec <TIM_SetAutoreload>:
 80045ec:	8581      	strh	r1, [r0, #44]	; 0x2c
 80045ee:	4770      	bx	lr

080045f0 <TIM_SetCompare1>:
 80045f0:	8681      	strh	r1, [r0, #52]	; 0x34
 80045f2:	4770      	bx	lr

080045f4 <TIM_SetCompare2>:
 80045f4:	8701      	strh	r1, [r0, #56]	; 0x38
 80045f6:	4770      	bx	lr

080045f8 <TIM_SetCompare3>:
 80045f8:	8781      	strh	r1, [r0, #60]	; 0x3c
 80045fa:	4770      	bx	lr

080045fc <TIM_SetCompare4>:
 80045fc:	f8a0 1040 	strh.w	r1, [r0, #64]	; 0x40
 8004600:	4770      	bx	lr

08004602 <TIM_SetIC1Prescaler>:
 8004602:	8b03      	ldrh	r3, [r0, #24]
 8004604:	f023 030c 	bic.w	r3, r3, #12
 8004608:	041b      	lsls	r3, r3, #16
 800460a:	0c1b      	lsrs	r3, r3, #16
 800460c:	8303      	strh	r3, [r0, #24]
 800460e:	8b03      	ldrh	r3, [r0, #24]
 8004610:	b29b      	uxth	r3, r3
 8004612:	4319      	orrs	r1, r3
 8004614:	8301      	strh	r1, [r0, #24]
 8004616:	4770      	bx	lr

08004618 <TIM_SetIC2Prescaler>:
 8004618:	8b03      	ldrh	r3, [r0, #24]
 800461a:	f423 6340 	bic.w	r3, r3, #3072	; 0xc00
 800461e:	041b      	lsls	r3, r3, #16
 8004620:	0c1b      	lsrs	r3, r3, #16
 8004622:	8303      	strh	r3, [r0, #24]
 8004624:	8b03      	ldrh	r3, [r0, #24]
 8004626:	b29b      	uxth	r3, r3
 8004628:	ea43 2101 	orr.w	r1, r3, r1, lsl #8
 800462c:	b28b      	uxth	r3, r1
 800462e:	8303      	strh	r3, [r0, #24]
 8004630:	4770      	bx	lr

08004632 <TIM_PWMIConfig>:
 8004632:	b5f8      	push	{r3, r4, r5, r6, r7, lr}
 8004634:	460c      	mov	r4, r1
 8004636:	88a2      	ldrh	r2, [r4, #4]
 8004638:	8849      	ldrh	r1, [r1, #2]
 800463a:	f8b4 e000 	ldrh.w	lr, [r4]
 800463e:	4605      	mov	r5, r0
 8004640:	2900      	cmp	r1, #0
 8004642:	bf0c      	ite	eq
 8004644:	2702      	moveq	r7, #2
 8004646:	2700      	movne	r7, #0
 8004648:	2a01      	cmp	r2, #1
 800464a:	bf14      	ite	ne
 800464c:	2601      	movne	r6, #1
 800464e:	2602      	moveq	r6, #2
 8004650:	8923      	ldrh	r3, [r4, #8]
 8004652:	f1be 0f00 	cmp.w	lr, #0
 8004656:	d111      	bne.n	800467c <TIM_PWMIConfig+0x4a>
 8004658:	f7ff fb00 	bl	8003c5c <TI1_Config>
 800465c:	4628      	mov	r0, r5
 800465e:	88e1      	ldrh	r1, [r4, #6]
 8004660:	f7ff ffcf 	bl	8004602 <TIM_SetIC1Prescaler>
 8004664:	4628      	mov	r0, r5
 8004666:	4639      	mov	r1, r7
 8004668:	4632      	mov	r2, r6
 800466a:	8923      	ldrh	r3, [r4, #8]
 800466c:	f7ff fb0f 	bl	8003c8e <TI2_Config>
 8004670:	88e1      	ldrh	r1, [r4, #6]
 8004672:	4628      	mov	r0, r5
 8004674:	e8bd 40f8 	ldmia.w	sp!, {r3, r4, r5, r6, r7, lr}
 8004678:	f7ff bfce 	b.w	8004618 <TIM_SetIC2Prescaler>
 800467c:	f7ff fb07 	bl	8003c8e <TI2_Config>
 8004680:	4628      	mov	r0, r5
 8004682:	88e1      	ldrh	r1, [r4, #6]
 8004684:	f7ff ffc8 	bl	8004618 <TIM_SetIC2Prescaler>
 8004688:	4628      	mov	r0, r5
 800468a:	4639      	mov	r1, r7
 800468c:	4632      	mov	r2, r6
 800468e:	8923      	ldrh	r3, [r4, #8]
 8004690:	f7ff fae4 	bl	8003c5c <TI1_Config>
 8004694:	88e1      	ldrh	r1, [r4, #6]
 8004696:	4628      	mov	r0, r5
 8004698:	e8bd 40f8 	ldmia.w	sp!, {r3, r4, r5, r6, r7, lr}
 800469c:	f7ff bfb1 	b.w	8004602 <TIM_SetIC1Prescaler>

080046a0 <TIM_SetIC3Prescaler>:
 80046a0:	8b83      	ldrh	r3, [r0, #28]
 80046a2:	f023 030c 	bic.w	r3, r3, #12
 80046a6:	041b      	lsls	r3, r3, #16
 80046a8:	0c1b      	lsrs	r3, r3, #16
 80046aa:	8383      	strh	r3, [r0, #28]
 80046ac:	8b83      	ldrh	r3, [r0, #28]
 80046ae:	b29b      	uxth	r3, r3
 80046b0:	4319      	orrs	r1, r3
 80046b2:	8381      	strh	r1, [r0, #28]
 80046b4:	4770      	bx	lr

080046b6 <TIM_SetIC4Prescaler>:
 80046b6:	8b83      	ldrh	r3, [r0, #28]
 80046b8:	f423 6340 	bic.w	r3, r3, #3072	; 0xc00
 80046bc:	041b      	lsls	r3, r3, #16
 80046be:	0c1b      	lsrs	r3, r3, #16
 80046c0:	8383      	strh	r3, [r0, #28]
 80046c2:	8b83      	ldrh	r3, [r0, #28]
 80046c4:	b29b      	uxth	r3, r3
 80046c6:	ea43 2101 	orr.w	r1, r3, r1, lsl #8
 80046ca:	b28b      	uxth	r3, r1
 80046cc:	8383      	strh	r3, [r0, #28]
 80046ce:	4770      	bx	lr

080046d0 <TIM_ICInit>:
 80046d0:	b5f8      	push	{r3, r4, r5, r6, r7, lr}
 80046d2:	880b      	ldrh	r3, [r1, #0]
 80046d4:	460d      	mov	r5, r1
 80046d6:	4604      	mov	r4, r0
 80046d8:	8849      	ldrh	r1, [r1, #2]
 80046da:	88aa      	ldrh	r2, [r5, #4]
 80046dc:	b943      	cbnz	r3, 80046f0 <TIM_ICInit+0x20>
 80046de:	892b      	ldrh	r3, [r5, #8]
 80046e0:	f7ff fabc 	bl	8003c5c <TI1_Config>
 80046e4:	88e9      	ldrh	r1, [r5, #6]
 80046e6:	4620      	mov	r0, r4
 80046e8:	e8bd 40f8 	ldmia.w	sp!, {r3, r4, r5, r6, r7, lr}
 80046ec:	f7ff bf89 	b.w	8004602 <TIM_SetIC1Prescaler>
 80046f0:	2b04      	cmp	r3, #4
 80046f2:	d108      	bne.n	8004706 <TIM_ICInit+0x36>
 80046f4:	892b      	ldrh	r3, [r5, #8]
 80046f6:	f7ff faca 	bl	8003c8e <TI2_Config>
 80046fa:	88e9      	ldrh	r1, [r5, #6]
 80046fc:	4620      	mov	r0, r4
 80046fe:	e8bd 40f8 	ldmia.w	sp!, {r3, r4, r5, r6, r7, lr}
 8004702:	f7ff bf89 	b.w	8004618 <TIM_SetIC2Prescaler>
 8004706:	2b08      	cmp	r3, #8
 8004708:	892f      	ldrh	r7, [r5, #8]
 800470a:	8c06      	ldrh	r6, [r0, #32]
 800470c:	d11c      	bne.n	8004748 <TIM_ICInit+0x78>
 800470e:	f426 7680 	bic.w	r6, r6, #256	; 0x100
 8004712:	0436      	lsls	r6, r6, #16
 8004714:	0c36      	lsrs	r6, r6, #16
 8004716:	8406      	strh	r6, [r0, #32]
 8004718:	8b86      	ldrh	r6, [r0, #28]
 800471a:	8c03      	ldrh	r3, [r0, #32]
 800471c:	b2b6      	uxth	r6, r6
 800471e:	b29b      	uxth	r3, r3
 8004720:	f026 06f3 	bic.w	r6, r6, #243	; 0xf3
 8004724:	f423 7300 	bic.w	r3, r3, #512	; 0x200
 8004728:	ea46 1707 	orr.w	r7, r6, r7, lsl #4
 800472c:	ea43 2101 	orr.w	r1, r3, r1, lsl #8
 8004730:	b2bf      	uxth	r7, r7
 8004732:	b289      	uxth	r1, r1
 8004734:	433a      	orrs	r2, r7
 8004736:	f441 7180 	orr.w	r1, r1, #256	; 0x100
 800473a:	8382      	strh	r2, [r0, #28]
 800473c:	8401      	strh	r1, [r0, #32]
 800473e:	88e9      	ldrh	r1, [r5, #6]
 8004740:	e8bd 40f8 	ldmia.w	sp!, {r3, r4, r5, r6, r7, lr}
 8004744:	f7ff bfac 	b.w	80046a0 <TIM_SetIC3Prescaler>
 8004748:	f426 5680 	bic.w	r6, r6, #4096	; 0x1000
 800474c:	0436      	lsls	r6, r6, #16
 800474e:	0c36      	lsrs	r6, r6, #16
 8004750:	8406      	strh	r6, [r0, #32]
 8004752:	8b83      	ldrh	r3, [r0, #28]
 8004754:	8c06      	ldrh	r6, [r0, #32]
 8004756:	f423 7340 	bic.w	r3, r3, #768	; 0x300
 800475a:	051b      	lsls	r3, r3, #20
 800475c:	b2b6      	uxth	r6, r6
 800475e:	0d1b      	lsrs	r3, r3, #20
 8004760:	ea43 2302 	orr.w	r3, r3, r2, lsl #8
 8004764:	f426 5200 	bic.w	r2, r6, #8192	; 0x2000
 8004768:	ea42 3101 	orr.w	r1, r2, r1, lsl #12
 800476c:	ea43 3307 	orr.w	r3, r3, r7, lsl #12
 8004770:	b289      	uxth	r1, r1
 8004772:	b29b      	uxth	r3, r3
 8004774:	f441 5180 	orr.w	r1, r1, #4096	; 0x1000
 8004778:	8383      	strh	r3, [r0, #28]
 800477a:	8401      	strh	r1, [r0, #32]
 800477c:	88e9      	ldrh	r1, [r5, #6]
 800477e:	e8bd 40f8 	ldmia.w	sp!, {r3, r4, r5, r6, r7, lr}
 8004782:	f7ff bf98 	b.w	80046b6 <TIM_SetIC4Prescaler>

08004786 <TIM_SetClockDivision>:
 8004786:	8803      	ldrh	r3, [r0, #0]
 8004788:	f423 7340 	bic.w	r3, r3, #768	; 0x300
 800478c:	041b      	lsls	r3, r3, #16
 800478e:	0c1b      	lsrs	r3, r3, #16
 8004790:	8003      	strh	r3, [r0, #0]
 8004792:	8803      	ldrh	r3, [r0, #0]
 8004794:	b29b      	uxth	r3, r3
 8004796:	4319      	orrs	r1, r3
 8004798:	8001      	strh	r1, [r0, #0]
 800479a:	4770      	bx	lr

0800479c <TIM_GetCapture1>:
 800479c:	8e80      	ldrh	r0, [r0, #52]	; 0x34
 800479e:	b280      	uxth	r0, r0
 80047a0:	4770      	bx	lr

080047a2 <TIM_GetCapture2>:
 80047a2:	8f00      	ldrh	r0, [r0, #56]	; 0x38
 80047a4:	b280      	uxth	r0, r0
 80047a6:	4770      	bx	lr

080047a8 <TIM_GetCapture3>:
 80047a8:	8f80      	ldrh	r0, [r0, #60]	; 0x3c
 80047aa:	b280      	uxth	r0, r0
 80047ac:	4770      	bx	lr

080047ae <TIM_GetCapture4>:
 80047ae:	f8b0 0040 	ldrh.w	r0, [r0, #64]	; 0x40
 80047b2:	b280      	uxth	r0, r0
 80047b4:	4770      	bx	lr

080047b6 <TIM_GetCounter>:
 80047b6:	8c80      	ldrh	r0, [r0, #36]	; 0x24
 80047b8:	b280      	uxth	r0, r0
 80047ba:	4770      	bx	lr

080047bc <TIM_GetPrescaler>:
 80047bc:	8d00      	ldrh	r0, [r0, #40]	; 0x28
 80047be:	b280      	uxth	r0, r0
 80047c0:	4770      	bx	lr

080047c2 <TIM_GetFlagStatus>:
 80047c2:	8a03      	ldrh	r3, [r0, #16]
 80047c4:	4219      	tst	r1, r3
 80047c6:	bf0c      	ite	eq
 80047c8:	2000      	moveq	r0, #0
 80047ca:	2001      	movne	r0, #1
 80047cc:	4770      	bx	lr

080047ce <TIM_ClearFlag>:
 80047ce:	43c9      	mvns	r1, r1
 80047d0:	b289      	uxth	r1, r1
 80047d2:	8201      	strh	r1, [r0, #16]
 80047d4:	4770      	bx	lr

080047d6 <TIM_GetITStatus>:
 80047d6:	8a03      	ldrh	r3, [r0, #16]
 80047d8:	8982      	ldrh	r2, [r0, #12]
 80047da:	ea11 0003 	ands.w	r0, r1, r3
 80047de:	b292      	uxth	r2, r2
 80047e0:	d003      	beq.n	80047ea <TIM_GetITStatus+0x14>
 80047e2:	4211      	tst	r1, r2
 80047e4:	bf0c      	ite	eq
 80047e6:	2000      	moveq	r0, #0
 80047e8:	2001      	movne	r0, #1
 80047ea:	4770      	bx	lr

080047ec <TIM_ClearITPendingBit>:
 80047ec:	43c9      	mvns	r1, r1
 80047ee:	b289      	uxth	r1, r1
 80047f0:	8201      	strh	r1, [r0, #16]
 80047f2:	4770      	bx	lr

080047f4 <USART_DeInit>:
 80047f4:	b508      	push	{r3, lr}
 80047f6:	4b20      	ldr	r3, [pc, #128]	; (8004878 <USART_DeInit+0x84>)
 80047f8:	4298      	cmp	r0, r3
 80047fa:	d10b      	bne.n	8004814 <USART_DeInit+0x20>
 80047fc:	f44f 4080 	mov.w	r0, #16384	; 0x4000
 8004800:	2101      	movs	r1, #1
 8004802:	f7fe fe99 	bl	8003538 <RCC_APB2PeriphResetCmd>
 8004806:	f44f 4080 	mov.w	r0, #16384	; 0x4000
 800480a:	2100      	movs	r1, #0
 800480c:	e8bd 4008 	ldmia.w	sp!, {r3, lr}
 8004810:	f7fe be92 	b.w	8003538 <RCC_APB2PeriphResetCmd>
 8004814:	4b19      	ldr	r3, [pc, #100]	; (800487c <USART_DeInit+0x88>)
 8004816:	4298      	cmp	r0, r3
 8004818:	d107      	bne.n	800482a <USART_DeInit+0x36>
 800481a:	f44f 3000 	mov.w	r0, #131072	; 0x20000
 800481e:	2101      	movs	r1, #1
 8004820:	f7fe fe96 	bl	8003550 <RCC_APB1PeriphResetCmd>
 8004824:	f44f 3000 	mov.w	r0, #131072	; 0x20000
 8004828:	e01f      	b.n	800486a <USART_DeInit+0x76>
 800482a:	4b15      	ldr	r3, [pc, #84]	; (8004880 <USART_DeInit+0x8c>)
 800482c:	4298      	cmp	r0, r3
 800482e:	d107      	bne.n	8004840 <USART_DeInit+0x4c>
 8004830:	f44f 2080 	mov.w	r0, #262144	; 0x40000
 8004834:	2101      	movs	r1, #1
 8004836:	f7fe fe8b 	bl	8003550 <RCC_APB1PeriphResetCmd>
 800483a:	f44f 2080 	mov.w	r0, #262144	; 0x40000
 800483e:	e014      	b.n	800486a <USART_DeInit+0x76>
 8004840:	4b10      	ldr	r3, [pc, #64]	; (8004884 <USART_DeInit+0x90>)
 8004842:	4298      	cmp	r0, r3
 8004844:	d107      	bne.n	8004856 <USART_DeInit+0x62>
 8004846:	f44f 2000 	mov.w	r0, #524288	; 0x80000
 800484a:	2101      	movs	r1, #1
 800484c:	f7fe fe80 	bl	8003550 <RCC_APB1PeriphResetCmd>
 8004850:	f44f 2000 	mov.w	r0, #524288	; 0x80000
 8004854:	e009      	b.n	800486a <USART_DeInit+0x76>
 8004856:	4b0c      	ldr	r3, [pc, #48]	; (8004888 <USART_DeInit+0x94>)
 8004858:	4298      	cmp	r0, r3
 800485a:	d10b      	bne.n	8004874 <USART_DeInit+0x80>
 800485c:	f44f 1080 	mov.w	r0, #1048576	; 0x100000
 8004860:	2101      	movs	r1, #1
 8004862:	f7fe fe75 	bl	8003550 <RCC_APB1PeriphResetCmd>
 8004866:	f44f 1080 	mov.w	r0, #1048576	; 0x100000
 800486a:	2100      	movs	r1, #0
 800486c:	e8bd 4008 	ldmia.w	sp!, {r3, lr}
 8004870:	f7fe be6e 	b.w	8003550 <RCC_APB1PeriphResetCmd>
 8004874:	bd08      	pop	{r3, pc}
 8004876:	bf00      	nop
 8004878:	40013800 	.word	0x40013800
 800487c:	40004400 	.word	0x40004400
 8004880:	40004800 	.word	0x40004800
 8004884:	40004c00 	.word	0x40004c00
 8004888:	40005000 	.word	0x40005000

0800488c <USART_Init>:
 800488c:	8a03      	ldrh	r3, [r0, #16]
 800488e:	88ca      	ldrh	r2, [r1, #6]
 8004890:	b29b      	uxth	r3, r3
 8004892:	f423 5340 	bic.w	r3, r3, #12288	; 0x3000
 8004896:	4313      	orrs	r3, r2
 8004898:	b530      	push	{r4, r5, lr}
 800489a:	8203      	strh	r3, [r0, #16]
 800489c:	8983      	ldrh	r3, [r0, #12]
 800489e:	460d      	mov	r5, r1
 80048a0:	88aa      	ldrh	r2, [r5, #4]
 80048a2:	8909      	ldrh	r1, [r1, #8]
 80048a4:	f423 53b0 	bic.w	r3, r3, #5632	; 0x1600
 80048a8:	430a      	orrs	r2, r1
 80048aa:	f023 030c 	bic.w	r3, r3, #12
 80048ae:	8969      	ldrh	r1, [r5, #10]
 80048b0:	041b      	lsls	r3, r3, #16
 80048b2:	430a      	orrs	r2, r1
 80048b4:	0c1b      	lsrs	r3, r3, #16
 80048b6:	4313      	orrs	r3, r2
 80048b8:	b29b      	uxth	r3, r3
 80048ba:	8183      	strh	r3, [r0, #12]
 80048bc:	8a83      	ldrh	r3, [r0, #20]
 80048be:	89aa      	ldrh	r2, [r5, #12]
 80048c0:	b29b      	uxth	r3, r3
 80048c2:	f423 7340 	bic.w	r3, r3, #768	; 0x300
 80048c6:	b087      	sub	sp, #28
 80048c8:	4313      	orrs	r3, r2
 80048ca:	4604      	mov	r4, r0
 80048cc:	8283      	strh	r3, [r0, #20]
 80048ce:	a801      	add	r0, sp, #4
 80048d0:	f7fe fdc8 	bl	8003464 <RCC_GetClocksFreq>
 80048d4:	4b16      	ldr	r3, [pc, #88]	; (8004930 <USART_Init+0xa4>)
 80048d6:	89a2      	ldrh	r2, [r4, #12]
 80048d8:	429c      	cmp	r4, r3
 80048da:	bf0c      	ite	eq
 80048dc:	9b04      	ldreq	r3, [sp, #16]
 80048de:	9b03      	ldrne	r3, [sp, #12]
 80048e0:	2119      	movs	r1, #25
 80048e2:	b212      	sxth	r2, r2
 80048e4:	4359      	muls	r1, r3
 80048e6:	2a00      	cmp	r2, #0
 80048e8:	682a      	ldr	r2, [r5, #0]
 80048ea:	f04f 0364 	mov.w	r3, #100	; 0x64
 80048ee:	bfb4      	ite	lt
 80048f0:	0052      	lsllt	r2, r2, #1
 80048f2:	0092      	lslge	r2, r2, #2
 80048f4:	fbb1 f1f2 	udiv	r1, r1, r2
 80048f8:	fbb1 f2f3 	udiv	r2, r1, r3
 80048fc:	0112      	lsls	r2, r2, #4
 80048fe:	0910      	lsrs	r0, r2, #4
 8004900:	fb03 1110 	mls	r1, r3, r0, r1
 8004904:	89a0      	ldrh	r0, [r4, #12]
 8004906:	b200      	sxth	r0, r0
 8004908:	2800      	cmp	r0, #0
 800490a:	da06      	bge.n	800491a <USART_Init+0x8e>
 800490c:	00c9      	lsls	r1, r1, #3
 800490e:	3132      	adds	r1, #50	; 0x32
 8004910:	fbb1 f3f3 	udiv	r3, r1, r3
 8004914:	f003 0307 	and.w	r3, r3, #7
 8004918:	e005      	b.n	8004926 <USART_Init+0x9a>
 800491a:	0109      	lsls	r1, r1, #4
 800491c:	3132      	adds	r1, #50	; 0x32
 800491e:	fbb1 f3f3 	udiv	r3, r1, r3
 8004922:	f003 030f 	and.w	r3, r3, #15
 8004926:	431a      	orrs	r2, r3
 8004928:	b292      	uxth	r2, r2
 800492a:	8122      	strh	r2, [r4, #8]
 800492c:	b007      	add	sp, #28
 800492e:	bd30      	pop	{r4, r5, pc}
 8004930:	40013800 	.word	0x40013800

08004934 <USART_StructInit>:
 8004934:	f44f 5316 	mov.w	r3, #9600	; 0x2580
 8004938:	6003      	str	r3, [r0, #0]
 800493a:	220c      	movs	r2, #12
 800493c:	2300      	movs	r3, #0
 800493e:	8083      	strh	r3, [r0, #4]
 8004940:	80c3      	strh	r3, [r0, #6]
 8004942:	8103      	strh	r3, [r0, #8]
 8004944:	8142      	strh	r2, [r0, #10]
 8004946:	8183      	strh	r3, [r0, #12]
 8004948:	4770      	bx	lr

0800494a <USART_ClockInit>:
 800494a:	880b      	ldrh	r3, [r1, #0]
 800494c:	b510      	push	{r4, lr}
 800494e:	884c      	ldrh	r4, [r1, #2]
 8004950:	8a02      	ldrh	r2, [r0, #16]
 8004952:	4323      	orrs	r3, r4
 8004954:	888c      	ldrh	r4, [r1, #4]
 8004956:	88c9      	ldrh	r1, [r1, #6]
 8004958:	b292      	uxth	r2, r2
 800495a:	4323      	orrs	r3, r4
 800495c:	430b      	orrs	r3, r1
 800495e:	f422 6270 	bic.w	r2, r2, #3840	; 0xf00
 8004962:	4313      	orrs	r3, r2
 8004964:	b29b      	uxth	r3, r3
 8004966:	8203      	strh	r3, [r0, #16]
 8004968:	bd10      	pop	{r4, pc}

0800496a <USART_ClockStructInit>:
 800496a:	2300      	movs	r3, #0
 800496c:	8003      	strh	r3, [r0, #0]
 800496e:	8043      	strh	r3, [r0, #2]
 8004970:	8083      	strh	r3, [r0, #4]
 8004972:	80c3      	strh	r3, [r0, #6]
 8004974:	4770      	bx	lr

08004976 <USART_Cmd>:
 8004976:	8983      	ldrh	r3, [r0, #12]
 8004978:	b119      	cbz	r1, 8004982 <USART_Cmd+0xc>
 800497a:	b29b      	uxth	r3, r3
 800497c:	f443 5300 	orr.w	r3, r3, #8192	; 0x2000
 8004980:	e003      	b.n	800498a <USART_Cmd+0x14>
 8004982:	f423 5300 	bic.w	r3, r3, #8192	; 0x2000
 8004986:	041b      	lsls	r3, r3, #16
 8004988:	0c1b      	lsrs	r3, r3, #16
 800498a:	8183      	strh	r3, [r0, #12]
 800498c:	4770      	bx	lr

0800498e <USART_ITConfig>:
 800498e:	f3c1 1342 	ubfx	r3, r1, #5, #3
 8004992:	b510      	push	{r4, lr}
 8004994:	2401      	movs	r4, #1
 8004996:	f001 011f 	and.w	r1, r1, #31
 800499a:	42a3      	cmp	r3, r4
 800499c:	fa04 f101 	lsl.w	r1, r4, r1
 80049a0:	d101      	bne.n	80049a6 <USART_ITConfig+0x18>
 80049a2:	300c      	adds	r0, #12
 80049a4:	e003      	b.n	80049ae <USART_ITConfig+0x20>
 80049a6:	2b02      	cmp	r3, #2
 80049a8:	bf0c      	ite	eq
 80049aa:	3010      	addeq	r0, #16
 80049ac:	3014      	addne	r0, #20
 80049ae:	6803      	ldr	r3, [r0, #0]
 80049b0:	b10a      	cbz	r2, 80049b6 <USART_ITConfig+0x28>
 80049b2:	4319      	orrs	r1, r3
 80049b4:	e001      	b.n	80049ba <USART_ITConfig+0x2c>
 80049b6:	ea23 0101 	bic.w	r1, r3, r1
 80049ba:	6001      	str	r1, [r0, #0]
 80049bc:	bd10      	pop	{r4, pc}

080049be <USART_DMACmd>:
 80049be:	8a83      	ldrh	r3, [r0, #20]
 80049c0:	b29b      	uxth	r3, r3
 80049c2:	b10a      	cbz	r2, 80049c8 <USART_DMACmd+0xa>
 80049c4:	4319      	orrs	r1, r3
 80049c6:	e001      	b.n	80049cc <USART_DMACmd+0xe>
 80049c8:	ea23 0101 	bic.w	r1, r3, r1
 80049cc:	8281      	strh	r1, [r0, #20]
 80049ce:	4770      	bx	lr

080049d0 <USART_SetAddress>:
 80049d0:	8a03      	ldrh	r3, [r0, #16]
 80049d2:	f023 030f 	bic.w	r3, r3, #15
 80049d6:	041b      	lsls	r3, r3, #16
 80049d8:	0c1b      	lsrs	r3, r3, #16
 80049da:	8203      	strh	r3, [r0, #16]
 80049dc:	8a03      	ldrh	r3, [r0, #16]
 80049de:	b29b      	uxth	r3, r3
 80049e0:	4319      	orrs	r1, r3
 80049e2:	8201      	strh	r1, [r0, #16]
 80049e4:	4770      	bx	lr

080049e6 <USART_WakeUpConfig>:
 80049e6:	8983      	ldrh	r3, [r0, #12]
 80049e8:	f423 6300 	bic.w	r3, r3, #2048	; 0x800
 80049ec:	041b      	lsls	r3, r3, #16
 80049ee:	0c1b      	lsrs	r3, r3, #16
 80049f0:	8183      	strh	r3, [r0, #12]
 80049f2:	8983      	ldrh	r3, [r0, #12]
 80049f4:	b29b      	uxth	r3, r3
 80049f6:	4319      	orrs	r1, r3
 80049f8:	8181      	strh	r1, [r0, #12]
 80049fa:	4770      	bx	lr

080049fc <USART_ReceiverWakeUpCmd>:
 80049fc:	8983      	ldrh	r3, [r0, #12]
 80049fe:	b119      	cbz	r1, 8004a08 <USART_ReceiverWakeUpCmd+0xc>
 8004a00:	b29b      	uxth	r3, r3
 8004a02:	f043 0302 	orr.w	r3, r3, #2
 8004a06:	e003      	b.n	8004a10 <USART_ReceiverWakeUpCmd+0x14>
 8004a08:	f023 0302 	bic.w	r3, r3, #2
 8004a0c:	041b      	lsls	r3, r3, #16
 8004a0e:	0c1b      	lsrs	r3, r3, #16
 8004a10:	8183      	strh	r3, [r0, #12]
 8004a12:	4770      	bx	lr

08004a14 <USART_LINBreakDetectLengthConfig>:
 8004a14:	8a03      	ldrh	r3, [r0, #16]
 8004a16:	f023 0320 	bic.w	r3, r3, #32
 8004a1a:	041b      	lsls	r3, r3, #16
 8004a1c:	0c1b      	lsrs	r3, r3, #16
 8004a1e:	8203      	strh	r3, [r0, #16]
 8004a20:	8a03      	ldrh	r3, [r0, #16]
 8004a22:	b29b      	uxth	r3, r3
 8004a24:	4319      	orrs	r1, r3
 8004a26:	8201      	strh	r1, [r0, #16]
 8004a28:	4770      	bx	lr

08004a2a <USART_LINCmd>:
 8004a2a:	8a03      	ldrh	r3, [r0, #16]
 8004a2c:	b119      	cbz	r1, 8004a36 <USART_LINCmd+0xc>
 8004a2e:	b29b      	uxth	r3, r3
 8004a30:	f443 4380 	orr.w	r3, r3, #16384	; 0x4000
 8004a34:	e003      	b.n	8004a3e <USART_LINCmd+0x14>
 8004a36:	f423 4380 	bic.w	r3, r3, #16384	; 0x4000
 8004a3a:	041b      	lsls	r3, r3, #16
 8004a3c:	0c1b      	lsrs	r3, r3, #16
 8004a3e:	8203      	strh	r3, [r0, #16]
 8004a40:	4770      	bx	lr

08004a42 <USART_SendData>:
 8004a42:	f3c1 0108 	ubfx	r1, r1, #0, #9
 8004a46:	8081      	strh	r1, [r0, #4]
 8004a48:	4770      	bx	lr

08004a4a <USART_ReceiveData>:
 8004a4a:	8880      	ldrh	r0, [r0, #4]
 8004a4c:	f3c0 0008 	ubfx	r0, r0, #0, #9
 8004a50:	4770      	bx	lr

08004a52 <USART_SendBreak>:
 8004a52:	8983      	ldrh	r3, [r0, #12]
 8004a54:	b29b      	uxth	r3, r3
 8004a56:	f043 0301 	orr.w	r3, r3, #1
 8004a5a:	8183      	strh	r3, [r0, #12]
 8004a5c:	4770      	bx	lr

08004a5e <USART_SetGuardTime>:
 8004a5e:	8b03      	ldrh	r3, [r0, #24]
 8004a60:	b2db      	uxtb	r3, r3
 8004a62:	8303      	strh	r3, [r0, #24]
 8004a64:	8b03      	ldrh	r3, [r0, #24]
 8004a66:	b29b      	uxth	r3, r3
 8004a68:	ea43 2101 	orr.w	r1, r3, r1, lsl #8
 8004a6c:	8301      	strh	r1, [r0, #24]
 8004a6e:	4770      	bx	lr

08004a70 <USART_SetPrescaler>:
 8004a70:	8b03      	ldrh	r3, [r0, #24]
 8004a72:	f403 437f 	and.w	r3, r3, #65280	; 0xff00
 8004a76:	8303      	strh	r3, [r0, #24]
 8004a78:	8b03      	ldrh	r3, [r0, #24]
 8004a7a:	b29b      	uxth	r3, r3
 8004a7c:	4319      	orrs	r1, r3
 8004a7e:	8301      	strh	r1, [r0, #24]
 8004a80:	4770      	bx	lr

08004a82 <USART_SmartCardCmd>:
 8004a82:	8a83      	ldrh	r3, [r0, #20]
 8004a84:	b119      	cbz	r1, 8004a8e <USART_SmartCardCmd+0xc>
 8004a86:	b29b      	uxth	r3, r3
 8004a88:	f043 0320 	orr.w	r3, r3, #32
 8004a8c:	e003      	b.n	8004a96 <USART_SmartCardCmd+0x14>
 8004a8e:	f023 0320 	bic.w	r3, r3, #32
 8004a92:	041b      	lsls	r3, r3, #16
 8004a94:	0c1b      	lsrs	r3, r3, #16
 8004a96:	8283      	strh	r3, [r0, #20]
 8004a98:	4770      	bx	lr

08004a9a <USART_SmartCardNACKCmd>:
 8004a9a:	8a83      	ldrh	r3, [r0, #20]
 8004a9c:	b119      	cbz	r1, 8004aa6 <USART_SmartCardNACKCmd+0xc>
 8004a9e:	b29b      	uxth	r3, r3
 8004aa0:	f043 0310 	orr.w	r3, r3, #16
 8004aa4:	e003      	b.n	8004aae <USART_SmartCardNACKCmd+0x14>
 8004aa6:	f023 0310 	bic.w	r3, r3, #16
 8004aaa:	041b      	lsls	r3, r3, #16
 8004aac:	0c1b      	lsrs	r3, r3, #16
 8004aae:	8283      	strh	r3, [r0, #20]
 8004ab0:	4770      	bx	lr

08004ab2 <USART_HalfDuplexCmd>:
 8004ab2:	8a83      	ldrh	r3, [r0, #20]
 8004ab4:	b119      	cbz	r1, 8004abe <USART_HalfDuplexCmd+0xc>
 8004ab6:	b29b      	uxth	r3, r3
 8004ab8:	f043 0308 	orr.w	r3, r3, #8
 8004abc:	e003      	b.n	8004ac6 <USART_HalfDuplexCmd+0x14>
 8004abe:	f023 0308 	bic.w	r3, r3, #8
 8004ac2:	041b      	lsls	r3, r3, #16
 8004ac4:	0c1b      	lsrs	r3, r3, #16
 8004ac6:	8283      	strh	r3, [r0, #20]
 8004ac8:	4770      	bx	lr

08004aca <USART_OverSampling8Cmd>:
 8004aca:	8983      	ldrh	r3, [r0, #12]
 8004acc:	b129      	cbz	r1, 8004ada <USART_OverSampling8Cmd+0x10>
 8004ace:	ea6f 4343 	mvn.w	r3, r3, lsl #17
 8004ad2:	ea6f 4353 	mvn.w	r3, r3, lsr #17
 8004ad6:	b29b      	uxth	r3, r3
 8004ad8:	e001      	b.n	8004ade <USART_OverSampling8Cmd+0x14>
 8004ada:	f3c3 030e 	ubfx	r3, r3, #0, #15
 8004ade:	8183      	strh	r3, [r0, #12]
 8004ae0:	4770      	bx	lr

08004ae2 <USART_OneBitMethodCmd>:
 8004ae2:	8a83      	ldrh	r3, [r0, #20]
 8004ae4:	b119      	cbz	r1, 8004aee <USART_OneBitMethodCmd+0xc>
 8004ae6:	b29b      	uxth	r3, r3
 8004ae8:	f443 6300 	orr.w	r3, r3, #2048	; 0x800
 8004aec:	e003      	b.n	8004af6 <USART_OneBitMethodCmd+0x14>
 8004aee:	f423 6300 	bic.w	r3, r3, #2048	; 0x800
 8004af2:	041b      	lsls	r3, r3, #16
 8004af4:	0c1b      	lsrs	r3, r3, #16
 8004af6:	8283      	strh	r3, [r0, #20]
 8004af8:	4770      	bx	lr

08004afa <USART_IrDAConfig>:
 8004afa:	8a83      	ldrh	r3, [r0, #20]
 8004afc:	f023 0304 	bic.w	r3, r3, #4
 8004b00:	041b      	lsls	r3, r3, #16
 8004b02:	0c1b      	lsrs	r3, r3, #16
 8004b04:	8283      	strh	r3, [r0, #20]
 8004b06:	8a83      	ldrh	r3, [r0, #20]
 8004b08:	b29b      	uxth	r3, r3
 8004b0a:	4319      	orrs	r1, r3
 8004b0c:	8281      	strh	r1, [r0, #20]
 8004b0e:	4770      	bx	lr

08004b10 <USART_IrDACmd>:
 8004b10:	8a83      	ldrh	r3, [r0, #20]
 8004b12:	b119      	cbz	r1, 8004b1c <USART_IrDACmd+0xc>
 8004b14:	b29b      	uxth	r3, r3
 8004b16:	f043 0302 	orr.w	r3, r3, #2
 8004b1a:	e003      	b.n	8004b24 <USART_IrDACmd+0x14>
 8004b1c:	f023 0302 	bic.w	r3, r3, #2
 8004b20:	041b      	lsls	r3, r3, #16
 8004b22:	0c1b      	lsrs	r3, r3, #16
 8004b24:	8283      	strh	r3, [r0, #20]
 8004b26:	4770      	bx	lr

08004b28 <USART_GetFlagStatus>:
 8004b28:	8803      	ldrh	r3, [r0, #0]
 8004b2a:	4219      	tst	r1, r3
 8004b2c:	bf0c      	ite	eq
 8004b2e:	2000      	moveq	r0, #0
 8004b30:	2001      	movne	r0, #1
 8004b32:	4770      	bx	lr

08004b34 <USART_ClearFlag>:
 8004b34:	43c9      	mvns	r1, r1
 8004b36:	b289      	uxth	r1, r1
 8004b38:	8001      	strh	r1, [r0, #0]
 8004b3a:	4770      	bx	lr

08004b3c <USART_GetITStatus>:
 8004b3c:	b510      	push	{r4, lr}
 8004b3e:	f3c1 1442 	ubfx	r4, r1, #5, #3
 8004b42:	f001 031f 	and.w	r3, r1, #31
 8004b46:	2201      	movs	r2, #1
 8004b48:	2c01      	cmp	r4, #1
 8004b4a:	fa02 f203 	lsl.w	r2, r2, r3
 8004b4e:	d101      	bne.n	8004b54 <USART_GetITStatus+0x18>
 8004b50:	8983      	ldrh	r3, [r0, #12]
 8004b52:	e003      	b.n	8004b5c <USART_GetITStatus+0x20>
 8004b54:	2c02      	cmp	r4, #2
 8004b56:	bf0c      	ite	eq
 8004b58:	8a03      	ldrheq	r3, [r0, #16]
 8004b5a:	8a83      	ldrhne	r3, [r0, #20]
 8004b5c:	b29b      	uxth	r3, r3
 8004b5e:	4013      	ands	r3, r2
 8004b60:	8802      	ldrh	r2, [r0, #0]
 8004b62:	b292      	uxth	r2, r2
 8004b64:	b143      	cbz	r3, 8004b78 <USART_GetITStatus+0x3c>
 8004b66:	2301      	movs	r3, #1
 8004b68:	0a09      	lsrs	r1, r1, #8
 8004b6a:	fa03 f101 	lsl.w	r1, r3, r1
 8004b6e:	4211      	tst	r1, r2
 8004b70:	bf0c      	ite	eq
 8004b72:	2000      	moveq	r0, #0
 8004b74:	2001      	movne	r0, #1
 8004b76:	bd10      	pop	{r4, pc}
 8004b78:	4618      	mov	r0, r3
 8004b7a:	bd10      	pop	{r4, pc}

08004b7c <USART_ClearITPendingBit>:
 8004b7c:	0a09      	lsrs	r1, r1, #8
 8004b7e:	2301      	movs	r3, #1
 8004b80:	408b      	lsls	r3, r1
 8004b82:	43db      	mvns	r3, r3
 8004b84:	b29b      	uxth	r3, r3
 8004b86:	8003      	strh	r3, [r0, #0]
 8004b88:	4770      	bx	lr
 8004b8a:	bf00      	nop

08004b8c <WWDG_DeInit>:
 8004b8c:	b508      	push	{r3, lr}
 8004b8e:	f44f 6000 	mov.w	r0, #2048	; 0x800
 8004b92:	2101      	movs	r1, #1
 8004b94:	f7fe fcdc 	bl	8003550 <RCC_APB1PeriphResetCmd>
 8004b98:	f44f 6000 	mov.w	r0, #2048	; 0x800
 8004b9c:	2100      	movs	r1, #0
 8004b9e:	e8bd 4008 	ldmia.w	sp!, {r3, lr}
 8004ba2:	f7fe bcd5 	b.w	8003550 <RCC_APB1PeriphResetCmd>

08004ba6 <WWDG_SetPrescaler>:
 8004ba6:	4b03      	ldr	r3, [pc, #12]	; (8004bb4 <WWDG_SetPrescaler+0xe>)
 8004ba8:	685a      	ldr	r2, [r3, #4]
 8004baa:	f422 72c0 	bic.w	r2, r2, #384	; 0x180
 8004bae:	4310      	orrs	r0, r2
 8004bb0:	6058      	str	r0, [r3, #4]
 8004bb2:	4770      	bx	lr
 8004bb4:	40002c00 	.word	0x40002c00

08004bb8 <WWDG_SetWindowValue>:
 8004bb8:	b082      	sub	sp, #8
 8004bba:	2300      	movs	r3, #0
 8004bbc:	9301      	str	r3, [sp, #4]
 8004bbe:	4b07      	ldr	r3, [pc, #28]	; (8004bdc <WWDG_SetWindowValue+0x24>)
 8004bc0:	f000 007f 	and.w	r0, r0, #127	; 0x7f
 8004bc4:	685a      	ldr	r2, [r3, #4]
 8004bc6:	f022 027f 	bic.w	r2, r2, #127	; 0x7f
 8004bca:	9201      	str	r2, [sp, #4]
 8004bcc:	9a01      	ldr	r2, [sp, #4]
 8004bce:	4302      	orrs	r2, r0
 8004bd0:	9201      	str	r2, [sp, #4]
 8004bd2:	9a01      	ldr	r2, [sp, #4]
 8004bd4:	605a      	str	r2, [r3, #4]
 8004bd6:	b002      	add	sp, #8
 8004bd8:	4770      	bx	lr
 8004bda:	bf00      	nop
 8004bdc:	40002c00 	.word	0x40002c00

08004be0 <WWDG_EnableIT>:
 8004be0:	4b01      	ldr	r3, [pc, #4]	; (8004be8 <WWDG_EnableIT+0x8>)
 8004be2:	2201      	movs	r2, #1
 8004be4:	601a      	str	r2, [r3, #0]
 8004be6:	4770      	bx	lr
 8004be8:	420580a4 	.word	0x420580a4

08004bec <WWDG_SetCounter>:
 8004bec:	4b02      	ldr	r3, [pc, #8]	; (8004bf8 <WWDG_SetCounter+0xc>)
 8004bee:	f000 007f 	and.w	r0, r0, #127	; 0x7f
 8004bf2:	6018      	str	r0, [r3, #0]
 8004bf4:	4770      	bx	lr
 8004bf6:	bf00      	nop
 8004bf8:	40002c00 	.word	0x40002c00

08004bfc <WWDG_Enable>:
 8004bfc:	4b02      	ldr	r3, [pc, #8]	; (8004c08 <WWDG_Enable+0xc>)
 8004bfe:	f040 0080 	orr.w	r0, r0, #128	; 0x80
 8004c02:	6018      	str	r0, [r3, #0]
 8004c04:	4770      	bx	lr
 8004c06:	bf00      	nop
 8004c08:	40002c00 	.word	0x40002c00

08004c0c <WWDG_GetFlagStatus>:
 8004c0c:	4b01      	ldr	r3, [pc, #4]	; (8004c14 <WWDG_GetFlagStatus+0x8>)
 8004c0e:	6898      	ldr	r0, [r3, #8]
 8004c10:	b2c0      	uxtb	r0, r0
 8004c12:	4770      	bx	lr
 8004c14:	40002c00 	.word	0x40002c00

08004c18 <WWDG_ClearFlag>:
 8004c18:	4b01      	ldr	r3, [pc, #4]	; (8004c20 <WWDG_ClearFlag+0x8>)
 8004c1a:	2200      	movs	r2, #0
 8004c1c:	609a      	str	r2, [r3, #8]
 8004c1e:	4770      	bx	lr
 8004c20:	40002c00 	.word	0x40002c00

08004c24 <SystemInit>:
 8004c24:	4b1e      	ldr	r3, [pc, #120]	; (8004ca0 <SystemInit+0x7c>)
 8004c26:	681a      	ldr	r2, [r3, #0]
 8004c28:	f042 0201 	orr.w	r2, r2, #1
 8004c2c:	601a      	str	r2, [r3, #0]
 8004c2e:	6859      	ldr	r1, [r3, #4]
 8004c30:	4a1c      	ldr	r2, [pc, #112]	; (8004ca4 <SystemInit+0x80>)
 8004c32:	400a      	ands	r2, r1
 8004c34:	605a      	str	r2, [r3, #4]
 8004c36:	681a      	ldr	r2, [r3, #0]
 8004c38:	f022 7284 	bic.w	r2, r2, #17301504	; 0x1080000
 8004c3c:	f422 3280 	bic.w	r2, r2, #65536	; 0x10000
 8004c40:	601a      	str	r2, [r3, #0]
 8004c42:	681a      	ldr	r2, [r3, #0]
 8004c44:	f422 2280 	bic.w	r2, r2, #262144	; 0x40000
 8004c48:	601a      	str	r2, [r3, #0]
 8004c4a:	685a      	ldr	r2, [r3, #4]
 8004c4c:	f422 02fe 	bic.w	r2, r2, #8323072	; 0x7f0000
 8004c50:	605a      	str	r2, [r3, #4]
 8004c52:	f44f 021f 	mov.w	r2, #10420224	; 0x9f0000
 8004c56:	609a      	str	r2, [r3, #8]
 8004c58:	2200      	movs	r2, #0
 8004c5a:	62da      	str	r2, [r3, #44]	; 0x2c
 8004c5c:	685a      	ldr	r2, [r3, #4]
 8004c5e:	f422 127c 	bic.w	r2, r2, #4128768	; 0x3f0000
 8004c62:	605a      	str	r2, [r3, #4]
 8004c64:	685a      	ldr	r2, [r3, #4]
 8004c66:	f442 1280 	orr.w	r2, r2, #1048576	; 0x100000
 8004c6a:	605a      	str	r2, [r3, #4]
 8004c6c:	681a      	ldr	r2, [r3, #0]
 8004c6e:	f042 7280 	orr.w	r2, r2, #16777216	; 0x1000000
 8004c72:	601a      	str	r2, [r3, #0]
 8004c74:	6819      	ldr	r1, [r3, #0]
 8004c76:	4a0a      	ldr	r2, [pc, #40]	; (8004ca0 <SystemInit+0x7c>)
 8004c78:	0189      	lsls	r1, r1, #6
 8004c7a:	d5fb      	bpl.n	8004c74 <SystemInit+0x50>
 8004c7c:	6853      	ldr	r3, [r2, #4]
 8004c7e:	f023 0303 	bic.w	r3, r3, #3
 8004c82:	6053      	str	r3, [r2, #4]
 8004c84:	6853      	ldr	r3, [r2, #4]
 8004c86:	f043 0302 	orr.w	r3, r3, #2
 8004c8a:	6053      	str	r3, [r2, #4]
 8004c8c:	6853      	ldr	r3, [r2, #4]
 8004c8e:	f003 030c 	and.w	r3, r3, #12
 8004c92:	2b08      	cmp	r3, #8
 8004c94:	d1fa      	bne.n	8004c8c <SystemInit+0x68>
 8004c96:	4b04      	ldr	r3, [pc, #16]	; (8004ca8 <SystemInit+0x84>)
 8004c98:	f04f 6200 	mov.w	r2, #134217728	; 0x8000000
 8004c9c:	609a      	str	r2, [r3, #8]
 8004c9e:	4770      	bx	lr
 8004ca0:	40021000 	.word	0x40021000
 8004ca4:	f8ff0000 	.word	0xf8ff0000
 8004ca8:	e000ed00 	.word	0xe000ed00

08004cac <SystemCoreClockUpdate>:
 8004cac:	4a14      	ldr	r2, [pc, #80]	; (8004d00 <SystemCoreClockUpdate+0x54>)
 8004cae:	4b15      	ldr	r3, [pc, #84]	; (8004d04 <SystemCoreClockUpdate+0x58>)
 8004cb0:	6851      	ldr	r1, [r2, #4]
 8004cb2:	f001 010c 	and.w	r1, r1, #12
 8004cb6:	2904      	cmp	r1, #4
 8004cb8:	d001      	beq.n	8004cbe <SystemCoreClockUpdate+0x12>
 8004cba:	2908      	cmp	r1, #8
 8004cbc:	d002      	beq.n	8004cc4 <SystemCoreClockUpdate+0x18>
 8004cbe:	4a12      	ldr	r2, [pc, #72]	; (8004d08 <SystemCoreClockUpdate+0x5c>)
 8004cc0:	601a      	str	r2, [r3, #0]
 8004cc2:	e012      	b.n	8004cea <SystemCoreClockUpdate+0x3e>
 8004cc4:	6851      	ldr	r1, [r2, #4]
 8004cc6:	6850      	ldr	r0, [r2, #4]
 8004cc8:	f3c1 4183 	ubfx	r1, r1, #18, #4
 8004ccc:	03c0      	lsls	r0, r0, #15
 8004cce:	f101 0102 	add.w	r1, r1, #2
 8004cd2:	d401      	bmi.n	8004cd8 <SystemCoreClockUpdate+0x2c>
 8004cd4:	4a0d      	ldr	r2, [pc, #52]	; (8004d0c <SystemCoreClockUpdate+0x60>)
 8004cd6:	e006      	b.n	8004ce6 <SystemCoreClockUpdate+0x3a>
 8004cd8:	6ad2      	ldr	r2, [r2, #44]	; 0x2c
 8004cda:	480b      	ldr	r0, [pc, #44]	; (8004d08 <SystemCoreClockUpdate+0x5c>)
 8004cdc:	f002 020f 	and.w	r2, r2, #15
 8004ce0:	3201      	adds	r2, #1
 8004ce2:	fbb0 f2f2 	udiv	r2, r0, r2
 8004ce6:	4351      	muls	r1, r2
 8004ce8:	6019      	str	r1, [r3, #0]
 8004cea:	4b05      	ldr	r3, [pc, #20]	; (8004d00 <SystemCoreClockUpdate+0x54>)
 8004cec:	685a      	ldr	r2, [r3, #4]
 8004cee:	4b05      	ldr	r3, [pc, #20]	; (8004d04 <SystemCoreClockUpdate+0x58>)
 8004cf0:	f3c2 1203 	ubfx	r2, r2, #4, #4
 8004cf4:	189a      	adds	r2, r3, r2
 8004cf6:	7911      	ldrb	r1, [r2, #4]
 8004cf8:	681a      	ldr	r2, [r3, #0]
 8004cfa:	40ca      	lsrs	r2, r1
 8004cfc:	601a      	str	r2, [r3, #0]
 8004cfe:	4770      	bx	lr
 8004d00:	40021000 	.word	0x40021000
 8004d04:	20000214 	.word	0x20000214
 8004d08:	007a1200 	.word	0x007a1200
 8004d0c:	003d0900 	.word	0x003d0900
 8004d10:	080055e9 	.word	0x080055e9
 8004d14:	20000000 	.word	0x20000000
 8004d18:	20000228 	.word	0x20000228
 8004d1c:	20000228 	.word	0x20000228
 8004d20:	20000514 	.word	0x20000514

08004d24 <main>:
 8004d24:	e92d 4ff0 	stmdb	sp!, {r4, r5, r6, r7, r8, r9, sl, fp, lr}
 8004d28:	2105      	movs	r1, #5
 8004d2a:	b0d5      	sub	sp, #340	; 0x154
 8004d2c:	48a3      	ldr	r0, [pc, #652]	; (8004fbc <main+0x298>)
 8004d2e:	f7fb fe91 	bl	8000a54 <raninit>
 8004d32:	f7fb fed7 	bl	8000ae4 <RCC_Configuration>
 8004d36:	f7fb fe9d 	bl	8000a74 <GPIO_Configuration>
 8004d3a:	f7fb ff49 	bl	8000bd0 <NVIC_Configuration>
 8004d3e:	4ba0      	ldr	r3, [pc, #640]	; (8004fc0 <main+0x29c>)
 8004d40:	2601      	movs	r6, #1
 8004d42:	4ca0      	ldr	r4, [pc, #640]	; (8004fc4 <main+0x2a0>)
 8004d44:	615e      	str	r6, [r3, #20]
 8004d46:	48a0      	ldr	r0, [pc, #640]	; (8004fc8 <main+0x2a4>)
 8004d48:	f7fb fb6a 	bl	8000420 <I2C_LowLevel_Init>
 8004d4c:	2320      	movs	r3, #32
 8004d4e:	2500      	movs	r5, #0
 8004d50:	7063      	strb	r3, [r4, #1]
 8004d52:	f04f 09e0 	mov.w	r9, #224	; 0xe0
 8004d56:	2310      	movs	r3, #16
 8004d58:	70a3      	strb	r3, [r4, #2]
 8004d5a:	7025      	strb	r5, [r4, #0]
 8004d5c:	4621      	mov	r1, r4
 8004d5e:	f04f 08e2 	mov.w	r8, #226	; 0xe2
 8004d62:	f8cd 9000 	str.w	r9, [sp]
 8004d66:	2203      	movs	r2, #3
 8004d68:	2302      	movs	r3, #2
 8004d6a:	4897      	ldr	r0, [pc, #604]	; (8004fc8 <main+0x2a4>)
 8004d6c:	f7fb fa60 	bl	8000230 <I2C_Master_BufferWrite>
 8004d70:	27e4      	movs	r7, #228	; 0xe4
 8004d72:	4621      	mov	r1, r4
 8004d74:	f8cd 8000 	str.w	r8, [sp]
 8004d78:	2203      	movs	r2, #3
 8004d7a:	2302      	movs	r3, #2
 8004d7c:	4892      	ldr	r0, [pc, #584]	; (8004fc8 <main+0x2a4>)
 8004d7e:	f7fb fa57 	bl	8000230 <I2C_Master_BufferWrite>
 8004d82:	4621      	mov	r1, r4
 8004d84:	9700      	str	r7, [sp, #0]
 8004d86:	2203      	movs	r2, #3
 8004d88:	2302      	movs	r3, #2
 8004d8a:	488f      	ldr	r0, [pc, #572]	; (8004fc8 <main+0x2a4>)
 8004d8c:	f7fb fa50 	bl	8000230 <I2C_Master_BufferWrite>
 8004d90:	23fe      	movs	r3, #254	; 0xfe
 8004d92:	7023      	strb	r3, [r4, #0]
 8004d94:	2202      	movs	r2, #2
 8004d96:	2303      	movs	r3, #3
 8004d98:	7063      	strb	r3, [r4, #1]
 8004d9a:	4621      	mov	r1, r4
 8004d9c:	4613      	mov	r3, r2
 8004d9e:	f8cd 9000 	str.w	r9, [sp]
 8004da2:	4889      	ldr	r0, [pc, #548]	; (8004fc8 <main+0x2a4>)
 8004da4:	f7fb fa44 	bl	8000230 <I2C_Master_BufferWrite>
 8004da8:	2202      	movs	r2, #2
 8004daa:	4621      	mov	r1, r4
 8004dac:	4613      	mov	r3, r2
 8004dae:	f8cd 8000 	str.w	r8, [sp]
 8004db2:	4885      	ldr	r0, [pc, #532]	; (8004fc8 <main+0x2a4>)
 8004db4:	f7fb fa3c 	bl	8000230 <I2C_Master_BufferWrite>
 8004db8:	2202      	movs	r2, #2
 8004dba:	4621      	mov	r1, r4
 8004dbc:	4613      	mov	r3, r2
 8004dbe:	9700      	str	r7, [sp, #0]
 8004dc0:	4881      	ldr	r0, [pc, #516]	; (8004fc8 <main+0x2a4>)
 8004dc2:	f7fb fa35 	bl	8000230 <I2C_Master_BufferWrite>
 8004dc6:	4b81      	ldr	r3, [pc, #516]	; (8004fcc <main+0x2a8>)
 8004dc8:	f44f 7280 	mov.w	r2, #256	; 0x100
 8004dcc:	615a      	str	r2, [r3, #20]
 8004dce:	f44f 23e1 	mov.w	r3, #460800	; 0x70800
 8004dd2:	9302      	str	r3, [sp, #8]
 8004dd4:	487e      	ldr	r0, [pc, #504]	; (8004fd0 <main+0x2ac>)
 8004dd6:	2304      	movs	r3, #4
 8004dd8:	a902      	add	r1, sp, #8
 8004dda:	f8ad 3012 	strh.w	r3, [sp, #18]
 8004dde:	f8ad 500c 	strh.w	r5, [sp, #12]
 8004de2:	f8ad 500e 	strh.w	r5, [sp, #14]
 8004de6:	f8ad 5010 	strh.w	r5, [sp, #16]
 8004dea:	f8ad 5014 	strh.w	r5, [sp, #20]
 8004dee:	f7ff fd4d 	bl	800488c <USART_Init>
 8004df2:	4631      	mov	r1, r6
 8004df4:	4876      	ldr	r0, [pc, #472]	; (8004fd0 <main+0x2ac>)
 8004df6:	f7ff fdbe 	bl	8004976 <USART_Cmd>
 8004dfa:	af06      	add	r7, sp, #24
 8004dfc:	463c      	mov	r4, r7
 8004dfe:	462e      	mov	r6, r5
 8004e00:	46b8      	mov	r8, r7
 8004e02:	f04f 0918 	mov.w	r9, #24
 8004e06:	6126      	str	r6, [r4, #16]
 8004e08:	6166      	str	r6, [r4, #20]
 8004e0a:	fb09 8005 	mla	r0, r9, r5, r8
 8004e0e:	3501      	adds	r5, #1
 8004e10:	f7fb fdee 	bl	80009f0 <random_stoner_light.5625>
 8004e14:	2d05      	cmp	r5, #5
 8004e16:	f104 0418 	add.w	r4, r4, #24
 8004e1a:	d1f4      	bne.n	8004e06 <main+0xe2>
 8004e1c:	f8df 81b8 	ldr.w	r8, [pc, #440]	; 8004fd8 <main+0x2b4>
 8004e20:	4c6c      	ldr	r4, [pc, #432]	; (8004fd4 <main+0x2b0>)
 8004e22:	2600      	movs	r6, #0
 8004e24:	f10d 0990 	add.w	r9, sp, #144	; 0x90
 8004e28:	463d      	mov	r5, r7
 8004e2a:	f04f 0a00 	mov.w	sl, #0
 8004e2e:	68ab      	ldr	r3, [r5, #8]
 8004e30:	68ea      	ldr	r2, [r5, #12]
 8004e32:	3301      	adds	r3, #1
 8004e34:	4293      	cmp	r3, r2
 8004e36:	60ab      	str	r3, [r5, #8]
 8004e38:	db06      	blt.n	8004e48 <main+0x124>
 8004e3a:	2018      	movs	r0, #24
 8004e3c:	eb0d 0300 	add.w	r3, sp, r0
 8004e40:	fb00 300a 	mla	r0, r0, sl, r3
 8004e44:	f7fb fdd4 	bl	80009f0 <random_stoner_light.5625>
 8004e48:	682a      	ldr	r2, [r5, #0]
 8004e4a:	6928      	ldr	r0, [r5, #16]
 8004e4c:	68ab      	ldr	r3, [r5, #8]
 8004e4e:	1a80      	subs	r0, r0, r2
 8004e50:	4358      	muls	r0, r3
 8004e52:	68e9      	ldr	r1, [r5, #12]
 8004e54:	fb90 f0f1 	sdiv	r0, r0, r1
 8004e58:	1812      	adds	r2, r2, r0
 8004e5a:	f8c8 2000 	str.w	r2, [r8]
 8004e5e:	6968      	ldr	r0, [r5, #20]
 8004e60:	686a      	ldr	r2, [r5, #4]
 8004e62:	1a80      	subs	r0, r0, r2
 8004e64:	4343      	muls	r3, r0
 8004e66:	fb93 f1f1 	sdiv	r1, r3, r1
 8004e6a:	eb02 0b01 	add.w	fp, r2, r1
 8004e6e:	4959      	ldr	r1, [pc, #356]	; (8004fd4 <main+0x2b0>)
 8004e70:	4859      	ldr	r0, [pc, #356]	; (8004fd8 <main+0x2b4>)
 8004e72:	f101 0308 	add.w	r3, r1, #8
 8004e76:	1d0a      	adds	r2, r1, #4
 8004e78:	f7fb fe76 	bl	8000b68 <colorWheel>
 8004e7c:	f3cb 030a 	ubfx	r3, fp, #0, #11
 8004e80:	f5b3 6f80 	cmp.w	r3, #1024	; 0x400
 8004e84:	db16      	blt.n	8004eb4 <main+0x190>
 8004e86:	f5c3 6100 	rsb	r1, r3, #2048	; 0x800
 8004e8a:	6822      	ldr	r2, [r4, #0]
 8004e8c:	f5a3 6380 	sub.w	r3, r3, #1024	; 0x400
 8004e90:	031b      	lsls	r3, r3, #12
 8004e92:	fb02 3001 	mla	r0, r2, r1, r3
 8004e96:	f44f 6280 	mov.w	r2, #1024	; 0x400
 8004e9a:	fb90 f0f2 	sdiv	r0, r0, r2
 8004e9e:	6020      	str	r0, [r4, #0]
 8004ea0:	6860      	ldr	r0, [r4, #4]
 8004ea2:	fb00 3001 	mla	r0, r0, r1, r3
 8004ea6:	fb90 f0f2 	sdiv	r0, r0, r2
 8004eaa:	6060      	str	r0, [r4, #4]
 8004eac:	68a0      	ldr	r0, [r4, #8]
 8004eae:	fb00 3301 	mla	r3, r0, r1, r3
 8004eb2:	e00e      	b.n	8004ed2 <main+0x1ae>
 8004eb4:	6822      	ldr	r2, [r4, #0]
 8004eb6:	fb02 f103 	mul.w	r1, r2, r3
 8004eba:	f44f 6280 	mov.w	r2, #1024	; 0x400
 8004ebe:	fb91 f1f2 	sdiv	r1, r1, r2
 8004ec2:	6021      	str	r1, [r4, #0]
 8004ec4:	6861      	ldr	r1, [r4, #4]
 8004ec6:	4359      	muls	r1, r3
 8004ec8:	fb91 f1f2 	sdiv	r1, r1, r2
 8004ecc:	6061      	str	r1, [r4, #4]
 8004ece:	68a1      	ldr	r1, [r4, #8]
 8004ed0:	434b      	muls	r3, r1
 8004ed2:	fb93 f2f2 	sdiv	r2, r3, r2
 8004ed6:	6823      	ldr	r3, [r4, #0]
 8004ed8:	60a2      	str	r2, [r4, #8]
 8004eda:	f8c9 3000 	str.w	r3, [r9]
 8004ede:	6863      	ldr	r3, [r4, #4]
 8004ee0:	f10a 0a01 	add.w	sl, sl, #1
 8004ee4:	f8c9 3004 	str.w	r3, [r9, #4]
 8004ee8:	68a3      	ldr	r3, [r4, #8]
 8004eea:	f1ba 0f05 	cmp.w	sl, #5
 8004eee:	f8c9 3008 	str.w	r3, [r9, #8]
 8004ef2:	f105 0518 	add.w	r5, r5, #24
 8004ef6:	f109 090c 	add.w	r9, r9, #12
 8004efa:	d198      	bne.n	8004e2e <main+0x10a>
 8004efc:	4b31      	ldr	r3, [pc, #196]	; (8004fc4 <main+0x2a0>)
 8004efe:	2206      	movs	r2, #6
 8004f00:	701a      	strb	r2, [r3, #0]
 8004f02:	2200      	movs	r2, #0
 8004f04:	f10d 0990 	add.w	r9, sp, #144	; 0x90
 8004f08:	f640 75ff 	movw	r5, #4095	; 0xfff
 8004f0c:	4611      	mov	r1, r2
 8004f0e:	f852 0009 	ldr.w	r0, [r2, r9]
 8004f12:	eb09 0c02 	add.w	ip, r9, r2
 8004f16:	42a8      	cmp	r0, r5
 8004f18:	bfa8      	it	ge
 8004f1a:	4628      	movge	r0, r5
 8004f1c:	70d8      	strb	r0, [r3, #3]
 8004f1e:	f3c0 2003 	ubfx	r0, r0, #8, #4
 8004f22:	7118      	strb	r0, [r3, #4]
 8004f24:	f8dc 0004 	ldr.w	r0, [ip, #4]
 8004f28:	320c      	adds	r2, #12
 8004f2a:	42a8      	cmp	r0, r5
 8004f2c:	bfa8      	it	ge
 8004f2e:	4628      	movge	r0, r5
 8004f30:	71d8      	strb	r0, [r3, #7]
 8004f32:	f3c0 2003 	ubfx	r0, r0, #8, #4
 8004f36:	7218      	strb	r0, [r3, #8]
 8004f38:	f8dc 0008 	ldr.w	r0, [ip, #8]
 8004f3c:	7059      	strb	r1, [r3, #1]
 8004f3e:	42a8      	cmp	r0, r5
 8004f40:	bfa8      	it	ge
 8004f42:	4628      	movge	r0, r5
 8004f44:	72d8      	strb	r0, [r3, #11]
 8004f46:	2a3c      	cmp	r2, #60	; 0x3c
 8004f48:	f3c0 2003 	ubfx	r0, r0, #8, #4
 8004f4c:	7099      	strb	r1, [r3, #2]
 8004f4e:	7159      	strb	r1, [r3, #5]
 8004f50:	7199      	strb	r1, [r3, #6]
 8004f52:	7259      	strb	r1, [r3, #9]
 8004f54:	7299      	strb	r1, [r3, #10]
 8004f56:	f04f 0e00 	mov.w	lr, #0
 8004f5a:	f803 0f0c 	strb.w	r0, [r3, #12]!
 8004f5e:	d1d6      	bne.n	8004f0e <main+0x1ea>
 8004f60:	4b18      	ldr	r3, [pc, #96]	; (8004fc4 <main+0x2a0>)
 8004f62:	2203      	movs	r2, #3
 8004f64:	f883 e03d 	strb.w	lr, [r3, #61]	; 0x3d
 8004f68:	f883 e03e 	strb.w	lr, [r3, #62]	; 0x3e
 8004f6c:	f883 203f 	strb.w	r2, [r3, #63]	; 0x3f
 8004f70:	f883 2040 	strb.w	r2, [r3, #64]	; 0x40
 8004f74:	4b12      	ldr	r3, [pc, #72]	; (8004fc0 <main+0x29c>)
 8004f76:	f096 0601 	eors.w	r6, r6, #1
 8004f7a:	f04f 0201 	mov.w	r2, #1
 8004f7e:	bf14      	ite	ne
 8004f80:	615a      	strne	r2, [r3, #20]
 8004f82:	611a      	streq	r2, [r3, #16]
 8004f84:	23e0      	movs	r3, #224	; 0xe0
 8004f86:	9300      	str	r3, [sp, #0]
 8004f88:	490e      	ldr	r1, [pc, #56]	; (8004fc4 <main+0x2a0>)
 8004f8a:	2241      	movs	r2, #65	; 0x41
 8004f8c:	2302      	movs	r3, #2
 8004f8e:	480e      	ldr	r0, [pc, #56]	; (8004fc8 <main+0x2a4>)
 8004f90:	f7fb f94e 	bl	8000230 <I2C_Master_BufferWrite>
 8004f94:	23e2      	movs	r3, #226	; 0xe2
 8004f96:	9300      	str	r3, [sp, #0]
 8004f98:	490a      	ldr	r1, [pc, #40]	; (8004fc4 <main+0x2a0>)
 8004f9a:	2241      	movs	r2, #65	; 0x41
 8004f9c:	2302      	movs	r3, #2
 8004f9e:	480a      	ldr	r0, [pc, #40]	; (8004fc8 <main+0x2a4>)
 8004fa0:	f7fb f946 	bl	8000230 <I2C_Master_BufferWrite>
 8004fa4:	23e4      	movs	r3, #228	; 0xe4
 8004fa6:	9300      	str	r3, [sp, #0]
 8004fa8:	4906      	ldr	r1, [pc, #24]	; (8004fc4 <main+0x2a0>)
 8004faa:	2241      	movs	r2, #65	; 0x41
 8004fac:	2302      	movs	r3, #2
 8004fae:	4806      	ldr	r0, [pc, #24]	; (8004fc8 <main+0x2a4>)
 8004fb0:	f7fb f93e 	bl	8000230 <I2C_Master_BufferWrite>
 8004fb4:	2001      	movs	r0, #1
 8004fb6:	f7fb fdc1 	bl	8000b3c <Delay>
 8004fba:	e733      	b.n	8004e24 <main+0x100>
 8004fbc:	20000500 	.word	0x20000500
 8004fc0:	40010800 	.word	0x40010800
 8004fc4:	20000000 	.word	0x20000000
 8004fc8:	40005400 	.word	0x40005400
 8004fcc:	40010c00 	.word	0x40010c00
 8004fd0:	40013800 	.word	0x40013800
 8004fd4:	20000370 	.word	0x20000370
 8004fd8:	20000510 	.word	0x20000510

08004fdc <Reset_Handler>:
 8004fdc:	2100      	movs	r1, #0
 8004fde:	f000 b804 	b.w	8004fea <LoopCopyDataInit>

08004fe2 <CopyDataInit>:
 8004fe2:	4b0c      	ldr	r3, [pc, #48]	; (8005014 <LoopFillZerobss+0x12>)
 8004fe4:	585b      	ldr	r3, [r3, r1]
 8004fe6:	5043      	str	r3, [r0, r1]
 8004fe8:	3104      	adds	r1, #4

08004fea <LoopCopyDataInit>:
 8004fea:	480b      	ldr	r0, [pc, #44]	; (8005018 <LoopFillZerobss+0x16>)
 8004fec:	4b0b      	ldr	r3, [pc, #44]	; (800501c <LoopFillZerobss+0x1a>)
 8004fee:	1842      	adds	r2, r0, r1
 8004ff0:	429a      	cmp	r2, r3
 8004ff2:	f4ff aff6 	bcc.w	8004fe2 <CopyDataInit>
 8004ff6:	4a0a      	ldr	r2, [pc, #40]	; (8005020 <LoopFillZerobss+0x1e>)
 8004ff8:	f000 b803 	b.w	8005002 <LoopFillZerobss>

08004ffc <FillZerobss>:
 8004ffc:	2300      	movs	r3, #0
 8004ffe:	f842 3b04 	str.w	r3, [r2], #4

08005002 <LoopFillZerobss>:
 8005002:	4b08      	ldr	r3, [pc, #32]	; (8005024 <LoopFillZerobss+0x22>)
 8005004:	429a      	cmp	r2, r3
 8005006:	f4ff aff9 	bcc.w	8004ffc <FillZerobss>
 800500a:	f7ff fe0b 	bl	8004c24 <SystemInit>
 800500e:	f7ff fe89 	bl	8004d24 <main>
 8005012:	4770      	bx	lr
 8005014:	080055e9 	.word	0x080055e9
 8005018:	20000000 	.word	0x20000000
 800501c:	20000228 	.word	0x20000228
 8005020:	20000228 	.word	0x20000228
 8005024:	20000514 	.word	0x20000514

08005028 <ADC1_IRQHandler>:
 8005028:	f7ff bffe 	b.w	8005028 <ADC1_IRQHandler>

0800502c <CSWTCH.11>:
 800502c:	0002 0000 0000 0100                         ........
